ARM Linker, 5.03 [Build 76] [MDK-ARM Standard]

==============================================================================

Section Cross References

    evboard.o(.text) refers to sysctl.o(i.SysCtlClockGet) for SysCtlClockGet
    evboard.o(.text) refers to sysctl.o(i.SysCtlPeripheralEnable) for SysCtlPeripheralEnable
    evboard.o(.text) refers to gpio.o(i.GPIOPinTypeSSI) for GPIOPinTypeSSI
    evboard.o(.text) refers to ssi.o(i.SSIConfigSetExpClk) for SSIConfigSetExpClk
    evboard.o(.text) refers to gpio.o(i.GPIOPinTypeGPIOOutput) for GPIOPinTypeGPIOOutput
    evboard.o(.text) refers to gpio.o(i.GPIOPinTypeGPIOInput) for GPIOPinTypeGPIOInput
    evboard.o(.text) refers to ssi.o(i.SSIEnable) for SSIEnable
    evboard.o(.text) refers to gpio.o(i.GPIOIntTypeSet) for GPIOIntTypeSet
    evboard.o(.text) refers to gpio.o(i.GPIOPinIntEnable) for GPIOPinIntEnable
    evboard.o(.text) refers to interrupt.o(i.IntEnable) for IntEnable
    evboard.o(.text) refers to gpio.o(i.GPIOPinWrite) for GPIOPinWrite
    evboard.o(.text) refers to evbradio.o(.text) for Read_RXFIFO
    evboard.o(.text) refers to mac.o(.text) for macRxCallback
    evboard.o(.text) refers to memalloc.o(.text) for MemAlloc
    evboard.o(.text) refers to phy.o(.text) for phyRxCallback
    evboard.o(.text) refers to gpio.o(i.GPIOPinIntStatus) for GPIOPinIntStatus
    evboard.o(.text) refers to gpio.o(i.GPIOPinIntClear) for GPIOPinIntClear
    evboard.o(.text) refers to target.o(.text) for usrIntCallback
    evboard.o(.text) refers to timer.o(i.TimerValueGet) for TimerValueGet
    evboard.o(.text) refers to gpio.o(i.GPIOPinRead) for GPIOPinRead
    evboard.o(.text) refers to halstack.o(.text) for halGetMACTimer
    evboard.o(.text) refers to evboard.o(.data) for local_radio_flags
    evboard.o(.text) refers to interrupt.o(i.IntMasterDisable) for IntMasterDisable
    evboard.o(.text) refers to interrupt.o(i.IntMasterEnable) for IntMasterEnable
    evboard.o(.text) refers to interrupt.o(i.IntDisable) for IntDisable
    evboard.o(.text) refers to console.o(.text) for conPrintROMString_func
    evboard.o(.text) refers to evboard.o(.constdata) for xxxxromstr
    evboard.o(.text) refers to phy.o(.bss) for phy_pib
    evboard.o(.text) refers to mac.o(.bss) for mac_pib
    evboard.o(.text) refers to halneighbor.o(.bss) for mac_addr_tbl
    evbradio.o(.text) refers to gpio.o(i.GPIOPinWrite) for GPIOPinWrite
    evbradio.o(.text) refers to ssi.o(i.SSIDataPut) for SSIDataPut
    evbradio.o(.text) refers to ssi.o(i.SSIDataGet) for SSIDataGet
    halstack.o(.text) refers to sysctl.o(i.SysCtlPeripheralEnable) for SysCtlPeripheralEnable
    halstack.o(.text) refers to timer.o(i.TimerConfigure) for TimerConfigure
    halstack.o(.text) refers to timer.o(i.TimerPrescaleSet) for TimerPrescaleSet
    halstack.o(.text) refers to timer.o(i.TimerLoadSet) for TimerLoadSet
    halstack.o(.text) refers to timer.o(i.TimerIntEnable) for TimerIntEnable
    halstack.o(.text) refers to interrupt.o(i.IntEnable) for IntEnable
    halstack.o(.text) refers to timer.o(i.TimerEnable) for TimerEnable
    halstack.o(.text) refers to gpio.o(i.GPIOPinTypeUART) for GPIOPinTypeUART
    halstack.o(.text) refers to sysctl.o(i.SysCtlClockGet) for SysCtlClockGet
    halstack.o(.text) refers to uart.o(i.UARTConfigSetExpClk) for UARTConfigSetExpClk
    halstack.o(.text) refers to uart.o(i.UARTEnable) for UARTEnable
    halstack.o(.text) refers to uart.o(i.UARTFIFOLevelSet) for UARTFIFOLevelSet
    halstack.o(.text) refers to uart.o(i.UARTIntDisable) for UARTIntDisable
    halstack.o(.text) refers to uart.o(i.UARTIntEnable) for UARTIntEnable
    halstack.o(.text) refers to interrupt.o(i.IntMasterEnable) for IntMasterEnable
    halstack.o(.text) refers to uart.o(i.UARTCharPut) for UARTCharPut
    halstack.o(.text) refers to uart.o(i.UARTIntStatus) for UARTIntStatus
    halstack.o(.text) refers to uart.o(i.UARTIntClear) for UARTIntClear
    halstack.o(.text) refers to uart.o(i.UARTCharsAvail) for UARTCharsAvail
    halstack.o(.text) refers to uart.o(i.UARTCharGetNonBlocking) for UARTCharGetNonBlocking
    halstack.o(.text) refers to isprint.o(.text) for isprint
    halstack.o(.text) refers to timer.o(i.TimerIntDisable) for TimerIntDisable
    halstack.o(.text) refers to evboard.o(.text) for halDisableRadio
    halstack.o(.text) refers to timer.o(i.TimerValueGet) for TimerValueGet
    halstack.o(.text) refers to interrupt.o(i.IntMasterDisable) for IntMasterDisable
    halstack.o(.text) refers to sysctl.o(i.SysCtlSleep) for SysCtlSleep
    halstack.o(.text) refers to timer.o(i.TimerIntClear) for TimerIntClear
    halstack.o(.text) refers to target.o(.text) for usrSlowTimerInt
    halstack.o(.text) refers to halstack.o(.data) for halMacTimerOflow
    halstack.o(.text) refers to halstack.o(.bss) for serio_rxBuff
    startup.o(STACK) refers (Special) to heapauxi.o(.text) for __use_two_region_memory
    startup.o(HEAP) refers (Special) to heapauxi.o(.text) for __use_two_region_memory
    startup.o(RESET) refers (Special) to heapauxi.o(.text) for __use_two_region_memory
    startup.o(RESET) refers to startup.o(STACK) for StackMem
    startup.o(RESET) refers to os_cpu_a.o(UCOSII_ASM) for OSPendSV
    startup.o(RESET) refers to target.o(.text) for tickISRHandler
    startup.o(RESET) refers to halstack.o(.text) for UART0_ISR
    startup.o(RESET) refers to evboard.o(.text) for GPIO_Port_J_ISR
    startup.o(RESET) refers to __main.o(!!!main) for __main
    startup.o(.text) refers (Special) to heapauxi.o(.text) for __use_two_region_memory
    startup.o(.text) refers to startup.o(HEAP) for HeapMem
    startup.o(.text) refers to startup.o(STACK) for StackMem
    target.o(.text) refers to _printf_percent.o(.ARM.Collect$$_printf_percent$$00000000) for _printf_percent
    target.o(.text) refers to _printf_d.o(.ARM.Collect$$_printf_percent$$00000009) for _printf_d
    target.o(.text) refers to _printf_dec.o(.text) for _printf_int_dec
    target.o(.text) refers to noretval__2sprintf.o(.text) for __2sprintf
    target.o(.text) refers to set_pinout.o(.text) for PinoutSet
    target.o(.text) refers to kitronix320x240x16_ssd2119_8bit.o(.text) for Kitronix320x240x16_SSD2119Init
    target.o(.text) refers to context.o(i.GrContextInit) for GrContextInit
    target.o(.text) refers to rectangle.o(i.GrRectFill) for GrRectFill
    target.o(.text) refers to rectangle.o(i.GrRectDraw) for GrRectDraw
    target.o(.text) refers to string.o(i.GrStringWidthGet) for GrStringWidthGet
    target.o(.text) refers to string.o(i.GrStringDraw) for GrStringDraw
    target.o(.text) refers to console.o(.text) for conPrintString
    target.o(.text) refers to target.o(.data) for a
    target.o(.text) refers to target.o(.bss) for buffer4
    target.o(.text) refers to kitronix320x240x16_ssd2119_8bit.o(.constdata) for g_sKitronix320x240x16_SSD2119
    target.o(.text) refers to fontcm30.o(.constdata) for g_sFontCm30
    target.o(.text) refers to fontcm40.o(.constdata) for g_sFontCm40
    target.o(.text) refers to ffix.o(x$fpl$ffix) for __aeabi_f2iz
    target.o(.text) refers to sysctl.o(i.SysCtlPeripheralEnable) for SysCtlPeripheralEnable
    target.o(.text) refers to gpio.o(i.GPIOPinTypeGPIOInput) for GPIOPinTypeGPIOInput
    target.o(.text) refers to gpio.o(i.GPIOPinRead) for GPIOPinRead
    target.o(.text) refers to sysctl.o(i.SysCtlPeripheralDisable) for SysCtlPeripheralDisable
    target.o(.text) refers to sysctl.o(i.SysCtlClockGet) for SysCtlClockGet
    target.o(.text) refers to systick.o(i.SysTickPeriodSet) for SysTickPeriodSet
    target.o(.text) refers to systick.o(i.SysTickEnable) for SysTickEnable
    target.o(.text) refers to systick.o(i.SysTickIntEnable) for SysTickIntEnable
    target.o(.text) refers to sysctl.o(i.SysCtlLDOSet) for SysCtlLDOSet
    target.o(.text) refers to sysctl.o(i.SysCtlClockSet) for SysCtlClockSet
    target.o(.text) refers to halstack.o(.text) for halInit
    target.o(.text) refers to evboard.o(.text) for evbInit
    target.o(.text) refers to aps.o(.text) for apsInit
    target.o(.text) refers to interrupt.o(i.IntMasterEnable) for IntMasterEnable
    target.o(.text) refers to debug.o(.text) for dbgPrintNeighborTable
    target.o(.text) refers to frleqf.o(x$fpl$frleqf) for __aeabi_cfrcmple
    target.o(.text) refers to strncmp.o(.text) for strncmp
    target.o(.text) refers to atof.o(i.atof) for atof
    target.o(.text) refers to debug.o(.data) for debug_level
    target.o(.text) refers to aps.o(.bss) for a_aps_rx_data
    target.o(.text) refers to dfix.o(x$fpl$dfix) for __aeabi_d2iz
    target.o(.text) refers to d2f.o(x$fpl$d2f) for __aeabi_d2f
    target.o(.text) refers to strcpy.o(.text) for strcpy
    target.o(.text) refers to rt_memclr_w.o(.text) for __aeabi_memclr4
    target.o(.text) refers to rt_memcpy_v6.o(.text) for __aeabi_memcpy
    target.o(.text) refers to os_cpu_a.o(UCOSII_ASM) for OS_ENTER_CRITICAL
    target.o(.text) refers to os_core.o(.text) for OSTimeTick
    target.o(.text) refers to os_core.o(.data) for OSIntNesting
    aps.o(.text) refers to halstack.o(.text) for halMacTicksToUs
    aps.o(.text) refers to memalloc.o(.text) for MemFree
    aps.o(.text) refers to zep.o(.text) for zepHandleRxPacket
    aps.o(.text) refers to target.o(.text) for usrRxPacketCallback
    aps.o(.text) refers to aps.o(.bss) for aps_pib
    aps.o(.text) refers to aps.o(.data) for apsRxState
    aps.o(.text) refers to phy.o(.bss) for phy_pib
    aps.o(.text) refers to nwk.o(.text) for nwkGetHopsToDest
    aps.o(.text) refers to nwk.o(.bss) for a_nwk_tx_data
    aps.o(.text) refers to nwk.o(.data) for nwkState
    aps.o(.text) refers to halneighbor.o(.bss) for mac_addr_tbl
    aps.o(.text) refers to staticbind.o(.text) for evbBindTableIterInit
    aps.o(.text) refers to interrupt.o(i.IntMasterDisable) for IntMasterDisable
    aps.o(.text) refers to mac.o(.text) for macWarmStartRadio
    aps.o(.text) refers to phy.o(.text) for phyInit
    aps.o(.text) refers to debug.o(.data) for debug_level
    console.o(.text) refers to halstack.o(.text) for halPutch
    console.o(.text) refers to console.o(.constdata) for xxxxromstr
    debug.o(.text) refers to console.o(.text) for conPrintROMString_func
    debug.o(.text) refers to debug.o(.constdata) for xxxxromstr
    debug.o(.text) refers to neighbor.o(.bss) for mac_nbr_tbl
    debug.o(.text) refers to halneighbor.o(.bss) for mac_addr_tbl
    mac.o(.text) refers to neighbor.o(.text) for ntInitAddressMap
    mac.o(.text) refers to halstack.o(.text) for halWarmstart
    mac.o(.text) refers to phy.o(.text) for phyFSM
    mac.o(.text) refers to evboard.o(.text) for halSetChannel
    mac.o(.text) refers to target.o(.text) for usrJoinVerifyCallback
    mac.o(.text) refers to mac.o(.data) for macState
    mac.o(.text) refers to mac.o(.bss) for mac_pib
    mac.o(.text) refers to phy.o(.bss) for a_phy_service
    mac.o(.text) refers to phy.o(.data) for phyState
    mac.o(.text) refers to halneighbor.o(.bss) for mac_addr_tbl
    mac.o(.text) refers to memalloc.o(.text) for MemFree
    mac.o(.text) refers to nwk.o(.text) for nwkRxBusy
    mac.o(.text) refers to debug.o(.data) for debug_level
    memalloc.o(.text) refers to rt_memclr.o(.text) for __aeabi_memclr
    memalloc.o(.text) refers to interrupt.o(i.IntMasterDisable) for IntMasterDisable
    memalloc.o(.text) refers to interrupt.o(i.IntMasterEnable) for IntMasterEnable
    memalloc.o(.text) refers to memalloc.o(.bss) for mem_heap
    neighbor.o(.text) refers to halstack.o(.text) for halUtilMemCopy
    neighbor.o(.text) refers to halneighbor.o(.bss) for mac_addr_tbl
    neighbor.o(.text) refers to neighbor.o(.bss) for mac_nbr_tbl
    neighbor.o(.text) refers to mac.o(.bss) for mac_pib
    nwk.o(.text) refers to halstack.o(.text) for halUtilMemCopy
    nwk.o(.text) refers to neighbor.o(.text) for ntFindNewDst
    nwk.o(.text) refers to mac.o(.text) for macFSM
    nwk.o(.text) refers to memalloc.o(.text) for MemFree
    nwk.o(.text) refers to aps.o(.text) for apsRxBusy
    nwk.o(.text) refers to nwk.o(.data) for nwkDSN
    nwk.o(.text) refers to nwk.o(.bss) for nwk_pib
    nwk.o(.text) refers to mac.o(.bss) for mac_pib
    nwk.o(.text) refers to mac.o(.data) for a_mac_service
    nwk.o(.text) refers to phy.o(.bss) for phy_pib
    nwk.o(.text) refers to halneighbor.o(.bss) for mac_addr_tbl
    nwk.o(.text) refers to phy.o(.text) for phyInit
    phy.o(.text) refers to memalloc.o(.text) for MemInit
    phy.o(.text) refers to halstack.o(.text) for halGetMACTimer
    phy.o(.text) refers to evboard.o(.text) for evbPoll
    phy.o(.text) refers to phy.o(.data) for phyState
    phy.o(.text) refers to phy.o(.bss) for phy_pib
    staticbind.o(.text) refers to neighbor.o(.text) for ntFindAddressBySADDR
    staticbind.o(.text) refers to staticbind.o(.data) for bind_table_index
    staticbind.o(.text) refers to halneighbor.o(.bss) for mac_addr_tbl
    zep.o(.text) refers to halstack.o(.text) for halMACTimerNowDelta
    zep.o(.text) refers to evboard.o(.text) for evbLedGet
    zep.o(.text) refers to neighbor.o(.text) for ntNewAddressMapEntry
    zep.o(.text) refers to target.o(.text) for usrZepRxCallback
    zep.o(.text) refers to zep.o(.data) for zepState
    zep.o(.text) refers to aps.o(.bss) for a_aps_rx_data
    zep.o(.text) refers to halneighbor.o(.bss) for mac_addr_tbl
    zep.o(.text) refers to phy.o(.bss) for tmpTxBuff
    zep.o(.text) refers to aps.o(.data) for apsEndPoints
    zep.o(.text) refers to mac.o(.bss) for mac_pib
    os_task.o(.text) refers to os_cpu_a.o(UCOSII_ASM) for OS_ENTER_CRITICAL
    os_task.o(.text) refers to os_cpu_c.o(.text) for OSTaskStkInit
    os_task.o(.text) refers to os_core.o(.text) for OS_TCBInit
    os_task.o(.text) refers to os_core.o(.bss) for OSTCBPrioTbl
    os_task.o(.text) refers to os_core.o(.data) for OSTaskCtr
    os_time.o(.text) refers to os_cpu_a.o(UCOSII_ASM) for OS_ENTER_CRITICAL
    os_time.o(.text) refers to os_core.o(.text) for OS_Sched
    os_time.o(.text) refers to os_core.o(.data) for OSTCBCur
    os_core.o(.text) refers to os_cpu_a.o(UCOSII_ASM) for OS_ENTER_CRITICAL
    os_core.o(.text) refers to os_cpu_c.o(.text) for OSTaskIdleHook
    os_core.o(.text) refers to os_task.o(.text) for OSTaskCreate
    os_core.o(.text) refers to os_core.o(.data) for OSIdleCtr
    os_core.o(.text) refers to os_core.o(.bss) for OSTaskIdleStk
    os_core.o(.text) refers to os_core.o(.constdata) for OSUnMapTbl
    os_cpu_a.o(UCOSII_ASM) refers to os_cpu_c.o(.data) for OsEnterSum
    os_cpu_a.o(UCOSII_ASM) refers to os_core.o(.data) for OSRunning
    os_cpu_a.o(UCOSII_ASM) refers to os_cpu_c.o(.text) for OSTaskSwHook
    kitronix320x240x16_ssd2119_8bit.o(.text) refers to sysctl.o(.emb_text) for SysCtlDelay
    kitronix320x240x16_ssd2119_8bit.o(.text) refers to gpio.o(i.GPIODirModeSet) for GPIODirModeSet
    kitronix320x240x16_ssd2119_8bit.o(.text) refers to gpio.o(i.GPIOPadConfigSet) for GPIOPadConfigSet
    kitronix320x240x16_ssd2119_8bit.o(.text) refers to gpio.o(i.GPIOPinWrite) for GPIOPinWrite
    kitronix320x240x16_ssd2119_8bit.o(.text) refers to gpio.o(i.GPIOPinTypeGPIOOutput) for GPIOPinTypeGPIOOutput
    kitronix320x240x16_ssd2119_8bit.o(.text) refers to sysctl.o(i.SysCtlClockGet) for SysCtlClockGet
    kitronix320x240x16_ssd2119_8bit.o(.text) refers to kitronix320x240x16_ssd2119_8bit.o(.data) for WriteData
    kitronix320x240x16_ssd2119_8bit.o(.text) refers to set_pinout.o(.data) for g_eDaughterType
    kitronix320x240x16_ssd2119_8bit.o(.constdata) refers to kitronix320x240x16_ssd2119_8bit.o(.text) for Kitronix320x240x16_SSD2119PixelDraw
    kitronix320x240x16_ssd2119_8bit.o(.data) refers to kitronix320x240x16_ssd2119_8bit.o(.text) for WriteDataGPIO
    set_pinout.o(.text) refers to i2c.o(i.I2CMasterIntClear) for I2CMasterIntClear
    set_pinout.o(.text) refers to i2c.o(i.I2CMasterSlaveAddrSet) for I2CMasterSlaveAddrSet
    set_pinout.o(.text) refers to i2c.o(i.I2CMasterDataPut) for I2CMasterDataPut
    set_pinout.o(.text) refers to i2c.o(i.I2CMasterControl) for I2CMasterControl
    set_pinout.o(.text) refers to i2c.o(i.I2CMasterIntStatus) for I2CMasterIntStatus
    set_pinout.o(.text) refers to i2c.o(i.I2CMasterErr) for I2CMasterErr
    set_pinout.o(.text) refers to sysctl.o(i.SysCtlPeripheralReset) for SysCtlPeripheralReset
    set_pinout.o(.text) refers to sysctl.o(.emb_text) for SysCtlDelay
    set_pinout.o(.text) refers to sysctl.o(i.SysCtlClockGet) for SysCtlClockGet
    set_pinout.o(.text) refers to i2c.o(i.I2CMasterInitExpClk) for I2CMasterInitExpClk
    set_pinout.o(.text) refers to i2c.o(i.I2CMasterDataGet) for I2CMasterDataGet
    set_pinout.o(.text) refers to sysctl.o(i.SysCtlPeripheralEnable) for SysCtlPeripheralEnable
    set_pinout.o(.text) refers to i2c.o(i.I2CMasterEnable) for I2CMasterEnable
    set_pinout.o(.text) refers to gpio.o(i.GPIOPinTypeI2C) for GPIOPinTypeI2C
    set_pinout.o(.text) refers to gpio.o(i.GPIOPadConfigSet) for GPIOPadConfigSet
    set_pinout.o(.text) refers to gpio.o(i.GPIODirModeSet) for GPIODirModeSet
    set_pinout.o(.text) refers to epi.o(i.EPIDividerSet) for EPIDividerSet
    set_pinout.o(.text) refers to epi.o(i.EPIModeSet) for EPIModeSet
    set_pinout.o(.text) refers to epi.o(i.EPIConfigSDRAMSet) for EPIConfigSDRAMSet
    set_pinout.o(.text) refers to epi.o(i.EPIConfigHB8Set) for EPIConfigHB8Set
    set_pinout.o(.text) refers to epi.o(i.EPIConfigGPModeSet) for EPIConfigGPModeSet
    set_pinout.o(.text) refers to epi.o(i.EPIAddressMapSet) for EPIAddressMapSet
    set_pinout.o(.text) refers to set_pinout.o(.constdata) for g_psEPIPinInfo
    set_pinout.o(.text) refers to gpio.o(i.GPIOPinTypeGPIOOutput) for GPIOPinTypeGPIOOutput
    set_pinout.o(.text) refers to gpio.o(i.GPIOPinTypeGPIOInput) for GPIOPinTypeGPIOInput
    set_pinout.o(.text) refers to gpio.o(i.GPIOPinWrite) for GPIOPinWrite
    set_pinout.o(.text) refers to set_pinout.o(.data) for g_eDaughterType
    main.o(.text) refers to evboard.o(.text) for evbLedSet
    main.o(.text) refers to aps.o(.text) for apsFSM
    main.o(.text) refers to target.o(.text) for targetInit
    main.o(.text) refers to os_task.o(.text) for OSTaskCreate
    main.o(.text) refers to os_cpu_a.o(UCOSII_ASM) for intDisAll
    main.o(.text) refers to os_core.o(.text) for OSInit
    main.o(.text) refers to halstack.o(.data) for GucIfSuccess
    main.o(.text) refers to aps.o(.data) for apsState
    main.o(.text) refers to aps.o(.bss) for a_aps_service
    main.o(.text) refers to nwk.o(.bss) for a_nwk_service
    main.o(.text) refers to mac.o(.bss) for mac_pib
    main.o(.text) refers to main.o(.bss) for GstkForm
    fontcm30.o(.constdata) refers to fontcm30.o(.constdata) for g_pucCm30Data
    fontcm40.o(.constdata) refers to fontcm40.o(.constdata) for g_pucCm40Data
    rectangle.o(i.GrRectDraw) refers to line.o(i.GrLineDrawH) for GrLineDrawH
    rectangle.o(i.GrRectDraw) refers to line.o(i.GrLineDrawV) for GrLineDrawV
    string.o(i.GrStringDraw) refers to line.o(i.GrLineDrawH) for GrLineDrawH
    string.o(i.GrStringGet) refers to string.o(.data) for .data
    string.o(i.GrStringLanguageSet) refers to string.o(.data) for .data
    string.o(i.GrStringTableSet) refers to string.o(.data) for .data
    epi.o(i.EPIIntRegister) refers to interrupt.o(i.IntRegister) for IntRegister
    epi.o(i.EPIIntRegister) refers to interrupt.o(i.IntEnable) for IntEnable
    epi.o(i.EPIIntUnregister) refers to interrupt.o(i.IntDisable) for IntDisable
    epi.o(i.EPIIntUnregister) refers to interrupt.o(i.IntUnregister) for IntUnregister
    gpio.o(i.GPIOPinConfigure) refers to gpio.o(.constdata) for .constdata
    gpio.o(i.GPIOPinTypeADC) refers to gpio.o(i.GPIODirModeSet) for GPIODirModeSet
    gpio.o(i.GPIOPinTypeADC) refers to gpio.o(i.GPIOPadConfigSet) for GPIOPadConfigSet
    gpio.o(i.GPIOPinTypeCAN) refers to gpio.o(i.GPIODirModeSet) for GPIODirModeSet
    gpio.o(i.GPIOPinTypeCAN) refers to gpio.o(i.GPIOPadConfigSet) for GPIOPadConfigSet
    gpio.o(i.GPIOPinTypeComparator) refers to gpio.o(i.GPIODirModeSet) for GPIODirModeSet
    gpio.o(i.GPIOPinTypeComparator) refers to gpio.o(i.GPIOPadConfigSet) for GPIOPadConfigSet
    gpio.o(i.GPIOPinTypeEPI) refers to gpio.o(i.GPIODirModeSet) for GPIODirModeSet
    gpio.o(i.GPIOPinTypeEPI) refers to gpio.o(i.GPIOPadConfigSet) for GPIOPadConfigSet
    gpio.o(i.GPIOPinTypeEthernetLED) refers to gpio.o(i.GPIODirModeSet) for GPIODirModeSet
    gpio.o(i.GPIOPinTypeEthernetLED) refers to gpio.o(i.GPIOPadConfigSet) for GPIOPadConfigSet
    gpio.o(i.GPIOPinTypeGPIOInput) refers to gpio.o(i.GPIODirModeSet) for GPIODirModeSet
    gpio.o(i.GPIOPinTypeGPIOInput) refers to gpio.o(i.GPIOPadConfigSet) for GPIOPadConfigSet
    gpio.o(i.GPIOPinTypeGPIOOutput) refers to gpio.o(i.GPIODirModeSet) for GPIODirModeSet
    gpio.o(i.GPIOPinTypeGPIOOutput) refers to gpio.o(i.GPIOPadConfigSet) for GPIOPadConfigSet
    gpio.o(i.GPIOPinTypeGPIOOutputOD) refers to gpio.o(i.GPIODirModeSet) for GPIODirModeSet
    gpio.o(i.GPIOPinTypeGPIOOutputOD) refers to gpio.o(i.GPIOPadConfigSet) for GPIOPadConfigSet
    gpio.o(i.GPIOPinTypeI2C) refers to gpio.o(i.GPIODirModeSet) for GPIODirModeSet
    gpio.o(i.GPIOPinTypeI2C) refers to gpio.o(i.GPIOPadConfigSet) for GPIOPadConfigSet
    gpio.o(i.GPIOPinTypeI2S) refers to gpio.o(i.GPIODirModeSet) for GPIODirModeSet
    gpio.o(i.GPIOPinTypeI2S) refers to gpio.o(i.GPIOPadConfigSet) for GPIOPadConfigSet
    gpio.o(i.GPIOPinTypePWM) refers to gpio.o(i.GPIODirModeSet) for GPIODirModeSet
    gpio.o(i.GPIOPinTypePWM) refers to gpio.o(i.GPIOPadConfigSet) for GPIOPadConfigSet
    gpio.o(i.GPIOPinTypeQEI) refers to gpio.o(i.GPIODirModeSet) for GPIODirModeSet
    gpio.o(i.GPIOPinTypeQEI) refers to gpio.o(i.GPIOPadConfigSet) for GPIOPadConfigSet
    gpio.o(i.GPIOPinTypeSSI) refers to gpio.o(i.GPIODirModeSet) for GPIODirModeSet
    gpio.o(i.GPIOPinTypeSSI) refers to gpio.o(i.GPIOPadConfigSet) for GPIOPadConfigSet
    gpio.o(i.GPIOPinTypeTimer) refers to gpio.o(i.GPIODirModeSet) for GPIODirModeSet
    gpio.o(i.GPIOPinTypeTimer) refers to gpio.o(i.GPIOPadConfigSet) for GPIOPadConfigSet
    gpio.o(i.GPIOPinTypeUART) refers to gpio.o(i.GPIODirModeSet) for GPIODirModeSet
    gpio.o(i.GPIOPinTypeUART) refers to gpio.o(i.GPIOPadConfigSet) for GPIOPadConfigSet
    gpio.o(i.GPIOPinTypeUSBAnalog) refers to gpio.o(i.GPIODirModeSet) for GPIODirModeSet
    gpio.o(i.GPIOPinTypeUSBAnalog) refers to gpio.o(i.GPIOPadConfigSet) for GPIOPadConfigSet
    gpio.o(i.GPIOPinTypeUSBDigital) refers to gpio.o(i.GPIODirModeSet) for GPIODirModeSet
    gpio.o(i.GPIOPinTypeUSBDigital) refers to gpio.o(i.GPIOPadConfigSet) for GPIOPadConfigSet
    gpio.o(i.GPIOPortIntRegister) refers to gpio.o(i.GPIOGetIntNumber) for GPIOGetIntNumber
    gpio.o(i.GPIOPortIntRegister) refers to interrupt.o(i.IntRegister) for IntRegister
    gpio.o(i.GPIOPortIntRegister) refers to interrupt.o(i.IntEnable) for IntEnable
    gpio.o(i.GPIOPortIntUnregister) refers to gpio.o(i.GPIOGetIntNumber) for GPIOGetIntNumber
    gpio.o(i.GPIOPortIntUnregister) refers to interrupt.o(i.IntDisable) for IntDisable
    gpio.o(i.GPIOPortIntUnregister) refers to interrupt.o(i.IntUnregister) for IntUnregister
    i2c.o(i.I2CIntRegister) refers to interrupt.o(i.IntRegister) for IntRegister
    i2c.o(i.I2CIntRegister) refers to interrupt.o(i.IntEnable) for IntEnable
    i2c.o(i.I2CIntUnregister) refers to interrupt.o(i.IntDisable) for IntDisable
    i2c.o(i.I2CIntUnregister) refers to interrupt.o(i.IntUnregister) for IntUnregister
    interrupt.o(i.IntMasterDisable) refers to cpu.o(.emb_text) for CPUcpsid
    interrupt.o(i.IntMasterEnable) refers to cpu.o(.emb_text) for CPUcpsie
    interrupt.o(i.IntPriorityGet) refers to interrupt.o(.constdata) for .constdata
    interrupt.o(i.IntPriorityGroupingGet) refers to interrupt.o(.constdata) for .constdata
    interrupt.o(i.IntPriorityGroupingSet) refers to interrupt.o(.constdata) for .constdata
    interrupt.o(i.IntPriorityMaskGet) refers to cpu.o(.emb_text) for CPUbasepriGet
    interrupt.o(i.IntPriorityMaskSet) refers to cpu.o(.emb_text) for CPUbasepriSet
    interrupt.o(i.IntPrioritySet) refers to interrupt.o(.constdata) for .constdata
    interrupt.o(i.IntRegister) refers to interrupt.o(vtable) for vtable
    interrupt.o(i.IntUnregister) refers to interrupt.o(i.IntDefaultHandler) for IntDefaultHandler
    interrupt.o(i.IntUnregister) refers to interrupt.o(vtable) for vtable
    ssi.o(i.SSIIntRegister) refers to interrupt.o(i.IntRegister) for IntRegister
    ssi.o(i.SSIIntRegister) refers to interrupt.o(i.IntEnable) for IntEnable
    ssi.o(i.SSIIntUnregister) refers to interrupt.o(i.IntDisable) for IntDisable
    ssi.o(i.SSIIntUnregister) refers to interrupt.o(i.IntUnregister) for IntUnregister
    sysctl.o(i.SysCtlClockGet) refers to sysctl.o(.constdata) for .constdata
    sysctl.o(i.SysCtlClockSet) refers to sysctl.o(.emb_text) for SysCtlDelay
    sysctl.o(i.SysCtlDeepSleep) refers to cpu.o(.emb_text) for CPUwfi
    sysctl.o(i.SysCtlI2SMClkSet) refers to sysctl.o(.constdata) for .constdata
    sysctl.o(i.SysCtlIntRegister) refers to interrupt.o(i.IntRegister) for IntRegister
    sysctl.o(i.SysCtlIntRegister) refers to interrupt.o(i.IntEnable) for IntEnable
    sysctl.o(i.SysCtlIntUnregister) refers to interrupt.o(i.IntDisable) for IntDisable
    sysctl.o(i.SysCtlIntUnregister) refers to interrupt.o(i.IntUnregister) for IntUnregister
    sysctl.o(i.SysCtlPeripheralDeepSleepDisable) refers to sysctl.o(.constdata) for .constdata
    sysctl.o(i.SysCtlPeripheralDeepSleepEnable) refers to sysctl.o(.constdata) for .constdata
    sysctl.o(i.SysCtlPeripheralDisable) refers to sysctl.o(.constdata) for .constdata
    sysctl.o(i.SysCtlPeripheralEnable) refers to sysctl.o(.constdata) for .constdata
    sysctl.o(i.SysCtlPeripheralPresent) refers to sysctl.o(.constdata) for .constdata
    sysctl.o(i.SysCtlPeripheralReset) refers to sysctl.o(.constdata) for .constdata
    sysctl.o(i.SysCtlPeripheralSleepDisable) refers to sysctl.o(.constdata) for .constdata
    sysctl.o(i.SysCtlPeripheralSleepEnable) refers to sysctl.o(.constdata) for .constdata
    sysctl.o(i.SysCtlSleep) refers to cpu.o(.emb_text) for CPUwfi
    systick.o(i.SysTickIntRegister) refers to interrupt.o(i.IntRegister) for IntRegister
    systick.o(i.SysTickIntUnregister) refers to interrupt.o(i.IntUnregister) for IntUnregister
    timer.o(i.TimerIntRegister) refers to interrupt.o(i.IntRegister) for IntRegister
    timer.o(i.TimerIntRegister) refers to interrupt.o(i.IntEnable) for IntEnable
    timer.o(i.TimerIntUnregister) refers to interrupt.o(i.IntDisable) for IntDisable
    timer.o(i.TimerIntUnregister) refers to interrupt.o(i.IntUnregister) for IntUnregister
    timer.o(i.TimerQuiesce) refers to interrupt.o(i.IntDisable) for IntDisable
    timer.o(i.TimerQuiesce) refers to interrupt.o(i.IntUnregister) for IntUnregister
    uart.o(i.UARTIntRegister) refers to interrupt.o(i.IntRegister) for IntRegister
    uart.o(i.UARTIntRegister) refers to interrupt.o(i.IntEnable) for IntEnable
    uart.o(i.UARTIntUnregister) refers to interrupt.o(i.IntDisable) for IntDisable
    uart.o(i.UARTIntUnregister) refers to interrupt.o(i.IntUnregister) for IntUnregister
    isprint.o(.text) refers to rt_ctype_table.o(.text) for __rt_ctype_table
    __2sprintf.o(.text) refers to _printf_char_common.o(.text) for _printf_char_common
    __2sprintf.o(.text) refers to _sputc.o(.text) for _sputc
    noretval__2sprintf.o(.text) refers to _printf_char_common.o(.text) for _printf_char_common
    noretval__2sprintf.o(.text) refers to _sputc.o(.text) for _sputc
    __printf.o(.text) refers to _printf_percent.o(.ARM.Collect$$_printf_percent$$00000000) for _printf_percent
    _printf_dec.o(.text) refers to _printf_intcommon.o(.text) for _printf_int_common
    __printf_flags.o(.text) refers to _printf_percent.o(.ARM.Collect$$_printf_percent$$00000000) for _printf_percent
    __printf_flags.o(.text) refers to __printf_flags.o(.constdata) for .constdata
    __printf_ss.o(.text) refers to _printf_percent.o(.ARM.Collect$$_printf_percent$$00000000) for _printf_percent
    __printf_flags_ss.o(.text) refers to _printf_percent.o(.ARM.Collect$$_printf_percent$$00000000) for _printf_percent
    __printf_flags_ss.o(.text) refers to __printf_flags_ss.o(.constdata) for .constdata
    __printf_wp.o(.text) refers to __printf_wp.o(i._is_digit) for _is_digit
    __printf_wp.o(.text) refers to _printf_percent.o(.ARM.Collect$$_printf_percent$$00000000) for _printf_percent
    __printf_flags_wp.o(.text) refers to __printf_wp.o(i._is_digit) for _is_digit
    __printf_flags_wp.o(.text) refers to _printf_percent.o(.ARM.Collect$$_printf_percent$$00000000) for _printf_percent
    __printf_flags_wp.o(.text) refers to __printf_flags_wp.o(.constdata) for .constdata
    __printf_ss_wp.o(.text) refers to __printf_wp.o(i._is_digit) for _is_digit
    __printf_ss_wp.o(.text) refers to _printf_percent.o(.ARM.Collect$$_printf_percent$$00000000) for _printf_percent
    __printf_flags_ss_wp.o(.text) refers to __printf_wp.o(i._is_digit) for _is_digit
    __printf_flags_ss_wp.o(.text) refers to _printf_percent.o(.ARM.Collect$$_printf_percent$$00000000) for _printf_percent
    __printf_flags_ss_wp.o(.text) refers to __printf_flags_ss_wp.o(.constdata) for .constdata
    _printf_d.o(.ARM.Collect$$_printf_percent$$00000009) refers (Weak) to _printf_dec.o(.text) for _printf_int_dec
    _printf_percent.o(.ARM.Collect$$_printf_percent$$00000000) refers (Special) to _printf_percent_end.o(.ARM.Collect$$_printf_percent$$00000017) for _printf_percent_end
    rt_memcpy_v6.o(.text) refers to rt_memcpy_w.o(.text) for __aeabi_memcpy4
    rt_memclr.o(.text) refers to rt_memclr_w.o(.text) for _memset_w
    __main.o(!!!main) refers to rtentry.o(.ARM.Collect$$rtentry$$00000000) for __rt_entry
    d2f.o(x$fpl$d2f) refers (Special) to usenofp.o(x$fpl$usenofp) for __I$use$fp
    d2f.o(x$fpl$d2f) refers to fretinf.o(x$fpl$fretinf) for __fpl_fretinf
    d2f.o(x$fpl$d2f) refers to dnaninf.o(x$fpl$dnaninf) for __fpl_dnaninf
    dfix.o(x$fpl$dfix) refers (Special) to usenofp.o(x$fpl$usenofp) for __I$use$fp
    dfix.o(x$fpl$dfix) refers to dnaninf.o(x$fpl$dnaninf) for __fpl_dnaninf
    dfix.o(x$fpl$dfixr) refers (Special) to usenofp.o(x$fpl$usenofp) for __I$use$fp
    dfix.o(x$fpl$dfixr) refers to dnaninf.o(x$fpl$dnaninf) for __fpl_dnaninf
    ffix.o(x$fpl$ffix) refers (Special) to usenofp.o(x$fpl$usenofp) for __I$use$fp
    ffix.o(x$fpl$ffix) refers to fnaninf.o(x$fpl$fnaninf) for __fpl_fnaninf
    ffix.o(x$fpl$ffixr) refers (Special) to usenofp.o(x$fpl$usenofp) for __I$use$fp
    ffix.o(x$fpl$ffixr) refers to fnaninf.o(x$fpl$fnaninf) for __fpl_fnaninf
    frleqf.o(x$fpl$frleqf) refers (Special) to usenofp.o(x$fpl$usenofp) for __I$use$fp
    frleqf.o(x$fpl$frleqf) refers to fleqf.o(x$fpl$fleqf) for __fpl_fcmple_InfNaN
    atof.o(i.__softfp_atof) refers (Special) to usenofp.o(x$fpl$usenofp) for __I$use$fp
    atof.o(i.__softfp_atof) refers to _rserrno.o(.text) for __read_errno
    atof.o(i.__softfp_atof) refers to strtod.o(.text) for __strtod_int
    atof.o(i.atof) refers (Special) to usenofp.o(x$fpl$usenofp) for __I$use$fp
    atof.o(i.atof) refers to _rserrno.o(.text) for __read_errno
    atof.o(i.atof) refers to strtod.o(.text) for __strtod_int
    rtentry.o(.ARM.Collect$$rtentry$$00000000) refers (Special) to rtentry2.o(.ARM.Collect$$rtentry$$0000000A) for __rt_entry_li
    rtentry.o(.ARM.Collect$$rtentry$$00000000) refers (Special) to rtentry2.o(.ARM.Collect$$rtentry$$0000000D) for __rt_entry_main
    rtentry.o(.ARM.Collect$$rtentry$$00000000) refers (Special) to rtentry2.o(.ARM.Collect$$rtentry$$0000000C) for __rt_entry_postli_1
    rtentry.o(.ARM.Collect$$rtentry$$00000000) refers (Special) to rtentry2.o(.ARM.Collect$$rtentry$$00000009) for __rt_entry_postsh_1
    rtentry.o(.ARM.Collect$$rtentry$$00000000) refers (Special) to rtentry2.o(.ARM.Collect$$rtentry$$00000002) for __rt_entry_presh_1
    rtentry.o(.ARM.Collect$$rtentry$$00000000) refers (Special) to rtentry4.o(.ARM.Collect$$rtentry$$00000004) for __rt_entry_sh
    rt_ctype_table.o(.text) refers to rt_locale_intlibspace.o(.text) for __rt_locale
    rt_ctype_table.o(.text) refers to lc_ctype_c.o(locale$$code) for _get_lc_ctype
    _rserrno.o(.text) refers to rt_errno_addr_intlibspace.o(.text) for __aeabi_errno_addr
    _printf_char_common.o(.text) refers to __printf.o(.text) for __printf
    strtod.o(.text) refers (Special) to lc_numeric_c.o(locale$$code) for _get_lc_numeric
    strtod.o(.text) refers to scanf1.o(x$fpl$scanf1) for _scanf_real
    strtod.o(.text) refers to _sgetc.o(.text) for _sgetc
    strtod.o(.text) refers to isspace.o(.text) for isspace
    dnaninf.o(x$fpl$dnaninf) refers (Special) to usenofp.o(x$fpl$usenofp) for __I$use$fp
    fleqf.o(x$fpl$fleqf) refers (Special) to usenofp.o(x$fpl$usenofp) for __I$use$fp
    fleqf.o(x$fpl$fleqf) refers to fnaninf.o(x$fpl$fnaninf) for __fpl_fnaninf
    fleqf.o(x$fpl$fleqf) refers to fcmpi.o(x$fpl$fcmpinf) for __fpl_fcmp_Inf
    fnaninf.o(x$fpl$fnaninf) refers (Special) to usenofp.o(x$fpl$usenofp) for __I$use$fp
    fretinf.o(x$fpl$fretinf) refers (Special) to usenofp.o(x$fpl$usenofp) for __I$use$fp
    rtentry2.o(.ARM.Collect$$rtentry$$00000008) refers to boardinit2.o(.text) for _platform_post_stackheap_init
    rtentry2.o(.ARM.Collect$$rtentry$$0000000A) refers to libinit.o(.ARM.Collect$$libinit$$00000000) for __rt_lib_init
    rtentry2.o(.ARM.Collect$$rtentry$$0000000B) refers to boardinit3.o(.text) for _platform_post_lib_init
    rtentry2.o(.ARM.Collect$$rtentry$$0000000D) refers to main.o(.text) for main
    rtentry2.o(.ARM.Collect$$rtentry$$0000000D) refers to exit.o(.text) for exit
    rtentry2.o(.ARM.exidx) refers to rtentry2.o(.ARM.Collect$$rtentry$$00000001) for .ARM.Collect$$rtentry$$00000001
    rtentry2.o(.ARM.exidx) refers to rtentry2.o(.ARM.Collect$$rtentry$$00000008) for .ARM.Collect$$rtentry$$00000008
    rtentry2.o(.ARM.exidx) refers to rtentry2.o(.ARM.Collect$$rtentry$$0000000A) for .ARM.Collect$$rtentry$$0000000A
    rtentry2.o(.ARM.exidx) refers to rtentry2.o(.ARM.Collect$$rtentry$$0000000B) for .ARM.Collect$$rtentry$$0000000B
    rtentry2.o(.ARM.exidx) refers to rtentry2.o(.ARM.Collect$$rtentry$$0000000D) for .ARM.Collect$$rtentry$$0000000D
    rtentry4.o(.ARM.Collect$$rtentry$$00000004) refers to sys_stackheap_outer.o(.text) for __user_setup_stackheap
    rtentry4.o(.ARM.exidx) refers to rtentry4.o(.ARM.Collect$$rtentry$$00000004) for .ARM.Collect$$rtentry$$00000004
    rt_locale.o(.text) refers to rt_locale.o(.bss) for __rt_locale_data
    rt_locale_intlibspace.o(.text) refers to libspace.o(.bss) for __libspace_start
    rt_errno_addr.o(.text) refers to rt_errno_addr.o(.bss) for __aeabi_errno_addr_data
    rt_errno_addr_intlibspace.o(.text) refers to libspace.o(.bss) for __libspace_start
    isspace.o(.text) refers to rt_ctype_table.o(.text) for __rt_ctype_table
    lc_ctype_c.o(locale$$data) refers (Special) to libinit2.o(.ARM.Collect$$libinit$$00000010) for __rt_lib_init_lc_ctype_2
    lc_ctype_c.o(locale$$code) refers (Special) to libinit2.o(.ARM.Collect$$libinit$$00000010) for __rt_lib_init_lc_ctype_2
    lc_ctype_c.o(locale$$code) refers to strcmpv7m.o(.text) for strcmp
    lc_ctype_c.o(locale$$code) refers to lc_ctype_c.o(locale$$data) for __lcctype_c_name
    lc_numeric_c.o(locale$$data) refers (Special) to libinit2.o(.ARM.Collect$$libinit$$00000014) for __rt_lib_init_lc_numeric_2
    lc_numeric_c.o(locale$$code) refers (Special) to libinit2.o(.ARM.Collect$$libinit$$00000014) for __rt_lib_init_lc_numeric_2
    lc_numeric_c.o(locale$$code) refers to strcmpv7m.o(.text) for strcmp
    lc_numeric_c.o(locale$$code) refers to lc_numeric_c.o(locale$$data) for __lcnum_c_name
    fcmpi.o(x$fpl$fcmpinf) refers (Special) to usenofp.o(x$fpl$usenofp) for __I$use$fp
    scanf1.o(x$fpl$scanf1) refers to scanf_fp.o(.text) for _scanf_really_real
    libspace.o(.text) refers to libspace.o(.bss) for __libspace_start
    sys_stackheap_outer.o(.text) refers to libspace.o(.text) for __user_perproc_libspace
    sys_stackheap_outer.o(.text) refers to startup.o(.text) for __user_initial_stackheap
    scanf_fp.o(.text) refers (Special) to usenofp.o(x$fpl$usenofp) for __I$use$fp
    scanf_fp.o(.text) refers (Special) to lc_numeric_c.o(locale$$code) for _get_lc_numeric
    scanf_fp.o(.text) refers to rt_errno_addr_intlibspace.o(.text) for __aeabi_errno_addr
    scanf_fp.o(.text) refers to bigflt0.o(.text) for _btod_etento
    scanf_fp.o(.text) refers to btod.o(CL$$btod_emuld) for _btod_emuld
    scanf_fp.o(.text) refers to btod.o(CL$$btod_edivd) for _btod_edivd
    scanf_fp.o(.text) refers to rt_locale_intlibspace.o(.text) for __rt_locale
    scanf_fp.o(.text) refers to scanf2.o(x$fpl$scanf2) for _scanf_infnan
    scanf_fp.o(.text) refers to __printf_wp.o(i._is_digit) for _is_digit
    scanf_fp.o(.text) refers to narrow.o(i.__mathlib_narrow) for __mathlib_narrow
    scanf_fp.o(.text) refers to fpconst.o(c$$dinf) for __huge_val
    exit.o(.text) refers to rtexit.o(.ARM.Collect$$rtexit$$00000000) for __rt_exit
    libinit.o(.ARM.Collect$$libinit$$00000000) refers (Special) to libinit2.o(.ARM.Collect$$libinit$$0000002C) for __rt_lib_init_alloca_1
    libinit.o(.ARM.Collect$$libinit$$00000000) refers (Special) to libinit2.o(.ARM.Collect$$libinit$$0000002A) for __rt_lib_init_argv_1
    libinit.o(.ARM.Collect$$libinit$$00000000) refers (Special) to libinit2.o(.ARM.Collect$$libinit$$00000019) for __rt_lib_init_atexit_1
    libinit.o(.ARM.Collect$$libinit$$00000000) refers (Special) to libinit2.o(.ARM.Collect$$libinit$$0000001F) for __rt_lib_init_clock_1
    libinit.o(.ARM.Collect$$libinit$$00000000) refers (Special) to libinit2.o(.ARM.Collect$$libinit$$00000030) for __rt_lib_init_cpp_1
    libinit.o(.ARM.Collect$$libinit$$00000000) refers (Special) to libinit2.o(.ARM.Collect$$libinit$$0000002E) for __rt_lib_init_exceptions_1
    libinit.o(.ARM.Collect$$libinit$$00000000) refers (Special) to libinit2.o(.ARM.Collect$$libinit$$00000002) for __rt_lib_init_fp_1
    libinit.o(.ARM.Collect$$libinit$$00000000) refers (Special) to libinit2.o(.ARM.Collect$$libinit$$0000001D) for __rt_lib_init_fp_trap_1
    libinit.o(.ARM.Collect$$libinit$$00000000) refers (Special) to libinit2.o(.ARM.Collect$$libinit$$00000021) for __rt_lib_init_getenv_1
    libinit.o(.ARM.Collect$$libinit$$00000000) refers (Special) to libinit2.o(.ARM.Collect$$libinit$$00000008) for __rt_lib_init_heap_1
    libinit.o(.ARM.Collect$$libinit$$00000000) refers (Special) to libinit2.o(.ARM.Collect$$libinit$$0000000F) for __rt_lib_init_lc_collate_1
    libinit.o(.ARM.Collect$$libinit$$00000000) refers (Special) to libinit2.o(.ARM.Collect$$libinit$$00000011) for __rt_lib_init_lc_ctype_1
    libinit.o(.ARM.Collect$$libinit$$00000000) refers (Special) to libinit2.o(.ARM.Collect$$libinit$$00000013) for __rt_lib_init_lc_monetary_1
    libinit.o(.ARM.Collect$$libinit$$00000000) refers (Special) to libinit2.o(.ARM.Collect$$libinit$$00000015) for __rt_lib_init_lc_numeric_1
    libinit.o(.ARM.Collect$$libinit$$00000000) refers (Special) to libinit2.o(.ARM.Collect$$libinit$$00000017) for __rt_lib_init_lc_time_1
    libinit.o(.ARM.Collect$$libinit$$00000000) refers (Special) to libinit2.o(.ARM.Collect$$libinit$$0000000C) for __rt_lib_init_rand_1
    libinit.o(.ARM.Collect$$libinit$$00000000) refers (Special) to libinit2.o(.ARM.Collect$$libinit$$00000031) for __rt_lib_init_return
    libinit.o(.ARM.Collect$$libinit$$00000000) refers (Special) to libinit2.o(.ARM.Collect$$libinit$$0000001B) for __rt_lib_init_signal_1
    libinit.o(.ARM.Collect$$libinit$$00000000) refers (Special) to libinit2.o(.ARM.Collect$$libinit$$00000023) for __rt_lib_init_stdio_1
    libinit.o(.ARM.Collect$$libinit$$00000000) refers (Special) to libinit2.o(.ARM.Collect$$libinit$$0000000A) for __rt_lib_init_user_alloc_1
    libinit2.o(.ARM.Collect$$libinit$$0000000D) refers (Weak) to rt_locale_intlibspace.o(.text) for __rt_locale
    libinit2.o(.ARM.Collect$$libinit$$0000000E) refers to libinit2.o(.ARM.Collect$$libinit$$0000000D) for .ARM.Collect$$libinit$$0000000D
    libinit2.o(.ARM.Collect$$libinit$$00000010) refers to libinit2.o(.ARM.Collect$$libinit$$0000000D) for .ARM.Collect$$libinit$$0000000D
    libinit2.o(.ARM.Collect$$libinit$$00000010) refers (Weak) to lc_ctype_c.o(locale$$code) for _get_lc_ctype
    libinit2.o(.ARM.Collect$$libinit$$00000012) refers to libinit2.o(.ARM.Collect$$libinit$$0000000D) for .ARM.Collect$$libinit$$0000000D
    libinit2.o(.ARM.Collect$$libinit$$00000014) refers to libinit2.o(.ARM.Collect$$libinit$$0000000D) for .ARM.Collect$$libinit$$0000000D
    libinit2.o(.ARM.Collect$$libinit$$00000014) refers (Weak) to lc_numeric_c.o(locale$$code) for _get_lc_numeric
    libinit2.o(.ARM.Collect$$libinit$$00000016) refers to libinit2.o(.ARM.Collect$$libinit$$0000000D) for .ARM.Collect$$libinit$$0000000D
    libinit2.o(.ARM.Collect$$libinit$$00000024) refers to argv_veneer.o(.emb_text) for __ARM_argv_veneer
    libinit2.o(.ARM.Collect$$libinit$$00000025) refers to argv_veneer.o(.emb_text) for __ARM_argv_veneer
    rtexit.o(.ARM.Collect$$rtexit$$00000000) refers (Special) to rtexit2.o(.ARM.Collect$$rtexit$$00000004) for __rt_exit_exit
    rtexit.o(.ARM.Collect$$rtexit$$00000000) refers (Special) to rtexit2.o(.ARM.Collect$$rtexit$$00000003) for __rt_exit_ls
    rtexit.o(.ARM.Collect$$rtexit$$00000000) refers (Special) to rtexit2.o(.ARM.Collect$$rtexit$$00000002) for __rt_exit_prels_1
    rtexit.o(.ARM.exidx) refers (Special) to rtexit2.o(.ARM.Collect$$rtexit$$00000004) for __rt_exit_exit
    rtexit.o(.ARM.exidx) refers (Special) to rtexit2.o(.ARM.Collect$$rtexit$$00000003) for __rt_exit_ls
    rtexit.o(.ARM.exidx) refers (Special) to rtexit2.o(.ARM.Collect$$rtexit$$00000002) for __rt_exit_prels_1
    rtexit.o(.ARM.exidx) refers to rtexit.o(.ARM.Collect$$rtexit$$00000000) for .ARM.Collect$$rtexit$$00000000
    bigflt0.o(.text) refers (Special) to usenofp.o(x$fpl$usenofp) for __I$use$fp
    bigflt0.o(.text) refers to btod.o(CL$$btod_emul) for _btod_emul
    bigflt0.o(.text) refers to btod.o(CL$$btod_ediv) for _btod_ediv
    bigflt0.o(.text) refers to bigflt0.o(.constdata) for .constdata
    bigflt0.o(.constdata) refers (Special) to usenofp.o(x$fpl$usenofp) for __I$use$fp
    btod.o(CL$$btod_d2e) refers (Special) to usenofp.o(x$fpl$usenofp) for __I$use$fp
    btod.o(CL$$btod_d2e) refers to btod.o(CL$$btod_d2e_norm_op1) for _d2e_norm_op1
    btod.o(CL$$btod_d2e_norm_op1) refers (Special) to usenofp.o(x$fpl$usenofp) for __I$use$fp
    btod.o(CL$$btod_d2e_norm_op1) refers to btod.o(CL$$btod_d2e_denorm_low) for _d2e_denorm_low
    btod.o(CL$$btod_d2e_denorm_low) refers (Special) to usenofp.o(x$fpl$usenofp) for __I$use$fp
    btod.o(CL$$btod_emul) refers (Special) to usenofp.o(x$fpl$usenofp) for __I$use$fp
    btod.o(CL$$btod_emul) refers to btod.o(CL$$btod_mult_common) for __btod_mult_common
    btod.o(CL$$btod_emul) refers to btod.o(CL$$btod_e2e) for _e2e
    btod.o(CL$$btod_ediv) refers (Special) to usenofp.o(x$fpl$usenofp) for __I$use$fp
    btod.o(CL$$btod_ediv) refers to btod.o(CL$$btod_div_common) for __btod_div_common
    btod.o(CL$$btod_ediv) refers to btod.o(CL$$btod_e2e) for _e2e
    btod.o(CL$$btod_emuld) refers (Special) to usenofp.o(x$fpl$usenofp) for __I$use$fp
    btod.o(CL$$btod_emuld) refers to btod.o(CL$$btod_mult_common) for __btod_mult_common
    btod.o(CL$$btod_emuld) refers to btod.o(CL$$btod_e2d) for _e2d
    btod.o(CL$$btod_edivd) refers (Special) to usenofp.o(x$fpl$usenofp) for __I$use$fp
    btod.o(CL$$btod_edivd) refers to btod.o(CL$$btod_div_common) for __btod_div_common
    btod.o(CL$$btod_edivd) refers to btod.o(CL$$btod_e2d) for _e2d
    btod.o(CL$$btod_e2e) refers (Special) to usenofp.o(x$fpl$usenofp) for __I$use$fp
    btod.o(CL$$btod_e2d) refers (Special) to usenofp.o(x$fpl$usenofp) for __I$use$fp
    btod.o(CL$$btod_e2d) refers to btod.o(CL$$btod_e2e) for _e2e
    btod.o(CL$$btod_mult_common) refers (Special) to usenofp.o(x$fpl$usenofp) for __I$use$fp
    btod.o(CL$$btod_div_common) refers (Special) to usenofp.o(x$fpl$usenofp) for __I$use$fp
    argv_veneer.o(.emb_text) refers to no_argv.o(.text) for __ARM_get_argv
    fpconst.o(c$$dinf) refers (Special) to usenofp.o(x$fpl$usenofp) for __I$use$fp
    fpconst.o(c$$dnan) refers (Special) to usenofp.o(x$fpl$usenofp) for __I$use$fp
    fpconst.o(c$$finf) refers (Special) to usenofp.o(x$fpl$usenofp) for __I$use$fp
    istatus.o(x$fpl$ieeestatus) refers (Special) to usenofp.o(x$fpl$usenofp) for __I$use$fp
    scanf2.o(x$fpl$scanf2) refers to scanf_hexfp.o(.text) for _scanf_really_hex_real
    scanf2.o(x$fpl$scanf2) refers to scanf_infnan.o(.text) for _scanf_really_infnan
    scanf2b.o(x$fpl$scanf2) refers to scanf_hexfp.o(.text) for _scanf_really_hex_real
    scanf2b.o(x$fpl$scanf2) refers to scanf_infnan.o(.text) for _scanf_really_infnan
    narrow.o(i.__mathlib_narrow) refers (Special) to usenofp.o(x$fpl$usenofp) for __I$use$fp
    narrow.o(i.__mathlib_narrow) refers to narrow.o(i.__mathlib_tofloat) for __mathlib_tofloat
    narrow.o(i.__mathlib_tofloat) refers (Special) to usenofp.o(x$fpl$usenofp) for __I$use$fp
    narrow.o(i.__mathlib_tofloat) refers to frexp.o(i.frexp) for frexp
    narrow.o(i.__mathlib_tofloat) refers to deqf.o(x$fpl$deqf) for __aeabi_cdcmpeq
    narrow.o(i.__mathlib_tofloat) refers to d2f.o(x$fpl$d2f) for __aeabi_d2f
    narrow.o(i.__mathlib_tofloat) refers to _rserrno.o(.text) for __set_errno
    narrow.o(i.__mathlib_tofloat) refers to drleqf.o(x$fpl$drleqf) for __aeabi_cdrcmple
    narrow.o(i.__softfp___mathlib_tofloat) refers (Special) to usenofp.o(x$fpl$usenofp) for __I$use$fp
    narrow.o(i.__softfp___mathlib_tofloat) refers to narrow.o(i.__mathlib_tofloat) for __mathlib_tofloat
    rtexit2.o(.ARM.Collect$$rtexit$$00000003) refers to libshutdown.o(.ARM.Collect$$libshutdown$$00000000) for __rt_lib_shutdown
    rtexit2.o(.ARM.Collect$$rtexit$$00000004) refers to sys_exit.o(.text) for _sys_exit
    rtexit2.o(.ARM.exidx) refers to rtexit2.o(.ARM.Collect$$rtexit$$00000001) for .ARM.Collect$$rtexit$$00000001
    rtexit2.o(.ARM.exidx) refers to rtexit2.o(.ARM.Collect$$rtexit$$00000003) for .ARM.Collect$$rtexit$$00000003
    rtexit2.o(.ARM.exidx) refers to rtexit2.o(.ARM.Collect$$rtexit$$00000004) for .ARM.Collect$$rtexit$$00000004
    scanf_hexfp.o(.text) refers to _chval.o(.text) for _chval
    scanf_hexfp.o(.text) refers to llshl.o(.text) for __aeabi_llsl
    scanf_hexfp.o(.text) refers to ldexp.o(i.__support_ldexp) for __support_ldexp
    scanf_hexfp.o(.text) refers to narrow.o(i.__mathlib_narrow) for __mathlib_narrow
    _get_argv_nomalloc.o(.text) refers (Special) to hrguard.o(.text) for __heap_region$guard
    _get_argv_nomalloc.o(.text) refers to defsig_rtmem_outer.o(.text) for __rt_SIGRTMEM
    _get_argv_nomalloc.o(.text) refers to sys_command.o(.text) for _sys_command_string
    deqf.o(x$fpl$deqf) refers (Special) to usenofp.o(x$fpl$usenofp) for __I$use$fp
    deqf.o(x$fpl$deqf) refers to dnaninf.o(x$fpl$dnaninf) for __fpl_dnaninf
    deqf.o(x$fpl$deqf) refers to dcmpi.o(x$fpl$dcmpinf) for __fpl_dcmp_Inf
    drleqf.o(x$fpl$drleqf) refers (Special) to usenofp.o(x$fpl$usenofp) for __I$use$fp
    drleqf.o(x$fpl$drleqf) refers to dleqf.o(x$fpl$dleqf) for __fpl_dcmple_InfNaN
    frexp.o(i.__softfp_frexp) refers (Special) to usenofp.o(x$fpl$usenofp) for __I$use$fp
    frexp.o(i.__softfp_frexp) refers to scalbn.o(x$fpl$scalbn) for __ARM_scalbn
    frexp.o(i.frexp) refers (Special) to usenofp.o(x$fpl$usenofp) for __I$use$fp
    frexp.o(i.frexp) refers to scalbn.o(x$fpl$scalbn) for __ARM_scalbn
    sys_command.o(.text) refers (Special) to use_no_semi.o(.text) for __I$use$semihosting
    sys_command.o(.text) refers (Special) to indicate_semi.o(.text) for __semihosting_library_function
    sys_exit.o(.text) refers (Special) to use_no_semi.o(.text) for __I$use$semihosting
    sys_exit.o(.text) refers (Special) to indicate_semi.o(.text) for __semihosting_library_function
    defsig_rtmem_outer.o(.text) refers to defsig_rtmem_inner.o(.text) for __rt_SIGRTMEM_inner
    defsig_rtmem_outer.o(.text) refers to defsig_exit.o(.text) for __sig_exit
    defsig_rtmem_formal.o(.text) refers to rt_raise.o(.text) for __rt_raise
    libshutdown.o(.ARM.Collect$$libshutdown$$00000000) refers (Special) to libshutdown2.o(.ARM.Collect$$libshutdown$$00000006) for __rt_lib_shutdown_fp_trap_1
    libshutdown.o(.ARM.Collect$$libshutdown$$00000000) refers (Special) to libshutdown2.o(.ARM.Collect$$libshutdown$$0000000E) for __rt_lib_shutdown_heap_1
    libshutdown.o(.ARM.Collect$$libshutdown$$00000000) refers (Special) to libshutdown2.o(.ARM.Collect$$libshutdown$$0000000F) for __rt_lib_shutdown_return
    libshutdown.o(.ARM.Collect$$libshutdown$$00000000) refers (Special) to libshutdown2.o(.ARM.Collect$$libshutdown$$00000009) for __rt_lib_shutdown_signal_1
    libshutdown.o(.ARM.Collect$$libshutdown$$00000000) refers (Special) to libshutdown2.o(.ARM.Collect$$libshutdown$$00000003) for __rt_lib_shutdown_stdio_1
    libshutdown.o(.ARM.Collect$$libshutdown$$00000000) refers (Special) to libshutdown2.o(.ARM.Collect$$libshutdown$$0000000B) for __rt_lib_shutdown_user_alloc_1
    dcmpi.o(x$fpl$dcmpinf) refers (Special) to usenofp.o(x$fpl$usenofp) for __I$use$fp
    dleqf.o(x$fpl$dleqf) refers (Special) to usenofp.o(x$fpl$usenofp) for __I$use$fp
    dleqf.o(x$fpl$dleqf) refers to dnaninf.o(x$fpl$dnaninf) for __fpl_dnaninf
    dleqf.o(x$fpl$dleqf) refers to dcmpi.o(x$fpl$dcmpinf) for __fpl_dcmp_Inf
    scalbn.o(x$fpl$scalbn) refers (Special) to usenofp.o(x$fpl$usenofp) for __I$use$fp
    scalbn.o(x$fpl$scalbn) refers to dcheck1.o(x$fpl$dcheck1) for __fpl_dcheck_NaN1
    ldexp.o(i.__softfp_ldexp) refers (Special) to usenofp.o(x$fpl$usenofp) for __I$use$fp
    ldexp.o(i.__softfp_ldexp) refers to ldexp.o(i.ldexp) for ldexp
    ldexp.o(i.__support_ldexp) refers (Special) to usenofp.o(x$fpl$usenofp) for __I$use$fp
    ldexp.o(i.__support_ldexp) refers to ldexp.o(i.ldexp) for ldexp
    ldexp.o(i.ldexp) refers (Special) to usenofp.o(x$fpl$usenofp) for __I$use$fp
    ldexp.o(i.ldexp) refers to deqf.o(x$fpl$deqf) for __aeabi_cdcmpeq
    ldexp.o(i.ldexp) refers to scalbn.o(x$fpl$scalbn) for __ARM_scalbn
    ldexp.o(i.ldexp) refers to _rserrno.o(.text) for __set_errno
    ldexp.o(i.ldexp) refers to dunder.o(i.__mathlib_dbl_underflow) for __mathlib_dbl_underflow
    ldexp_x.o(i.____softfp_ldexp$lsc) refers (Special) to usenofp.o(x$fpl$usenofp) for __I$use$fp
    ldexp_x.o(i.____softfp_ldexp$lsc) refers to ldexp_x.o(i.__ldexp$lsc) for __ldexp$lsc
    ldexp_x.o(i.____support_ldexp$lsc) refers (Special) to usenofp.o(x$fpl$usenofp) for __I$use$fp
    ldexp_x.o(i.____support_ldexp$lsc) refers to ldexp_x.o(i.__ldexp$lsc) for __ldexp$lsc
    ldexp_x.o(i.__ldexp$lsc) refers (Special) to usenofp.o(x$fpl$usenofp) for __I$use$fp
    ldexp_x.o(i.__ldexp$lsc) refers to deqf.o(x$fpl$deqf) for __aeabi_cdcmpeq
    ldexp_x.o(i.__ldexp$lsc) refers to scalbn.o(x$fpl$scalbn) for __ARM_scalbn
    ldexp_x.o(i.__ldexp$lsc) refers to _rserrno.o(.text) for __set_errno
    ldexp_x.o(i.__ldexp$lsc) refers to qnan.o(.constdata) for __mathlib_zero
    rt_raise.o(.text) refers to __raise.o(.text) for __raise
    rt_raise.o(.text) refers to sys_exit.o(.text) for _sys_exit
    defsig_exit.o(.text) refers to sys_exit.o(.text) for _sys_exit
    defsig_rtmem_inner.o(.text) refers to defsig_general.o(.text) for __default_signal_display
    dcheck1.o(x$fpl$dcheck1) refers (Special) to usenofp.o(x$fpl$usenofp) for __I$use$fp
    dcheck1.o(x$fpl$dcheck1) refers to retnan.o(x$fpl$retnan) for __fpl_return_NaN
    dunder.o(i.__mathlib_dbl_underflow) refers to scalbn.o(x$fpl$scalbn) for __ARM_scalbn
    qnan.o(.constdata) refers (Special) to usenofp.o(x$fpl$usenofp) for __I$use$fp
    __raise.o(.text) refers to defsig.o(CL$$defsig) for __default_signal_handler
    defsig_general.o(.text) refers to sys_wrch.o(.text) for _ttywrch
    retnan.o(x$fpl$retnan) refers (Special) to usenofp.o(x$fpl$usenofp) for __I$use$fp
    retnan.o(x$fpl$retnan) refers to trapv.o(x$fpl$trapveneer) for __fpl_cmpreturn
    sys_wrch.o(.text) refers (Special) to use_no_semi.o(.text) for __I$use$semihosting
    sys_wrch.o(.text) refers (Special) to indicate_semi.o(.text) for __semihosting_library_function
    defsig.o(CL$$defsig) refers to defsig_rtmem_inner.o(.text) for __rt_SIGRTMEM_inner
    trapv.o(x$fpl$trapveneer) refers (Special) to usenofp.o(x$fpl$usenofp) for __I$use$fp
    defsig_abrt_inner.o(.text) refers to defsig_general.o(.text) for __default_signal_display
    defsig_fpe_inner.o(.text) refers to defsig_general.o(.text) for __default_signal_display
    defsig_rtred_inner.o(.text) refers to defsig_general.o(.text) for __default_signal_display
    defsig_stak_inner.o(.text) refers to defsig_general.o(.text) for __default_signal_display
    defsig_pvfn_inner.o(.text) refers to defsig_general.o(.text) for __default_signal_display
    defsig_cppl_inner.o(.text) refers to defsig_general.o(.text) for __default_signal_display
    defsig_segv_inner.o(.text) refers to defsig_general.o(.text) for __default_signal_display
    defsig_other.o(.text) refers to defsig_general.o(.text) for __default_signal_display


==============================================================================

Removing Unused input sections from the image.

    Removing memalloc.o(.constdata), (14 bytes).
    Removing os_time.o(.text), (88 bytes).
    Removing context.o(i.GrContextClipRegionSet), (112 bytes).
    Removing rectangle.o(i.GrRectIntersectGet), (136 bytes).
    Removing rectangle.o(i.GrRectOverlapCheck), (56 bytes).
    Removing string.o(i.GrStringGet), (592 bytes).
    Removing string.o(i.GrStringLanguageSet), (48 bytes).
    Removing string.o(i.GrStringTableSet), (40 bytes).
    Removing string.o(.data), (20 bytes).
    Removing epi.o(i.EPIConfigHB16Set), (46 bytes).
    Removing epi.o(i.EPIFIFOConfig), (6 bytes).
    Removing epi.o(i.EPIIntDisable), (14 bytes).
    Removing epi.o(i.EPIIntEnable), (12 bytes).
    Removing epi.o(i.EPIIntErrorClear), (6 bytes).
    Removing epi.o(i.EPIIntErrorStatus), (6 bytes).
    Removing epi.o(i.EPIIntRegister), (18 bytes).
    Removing epi.o(i.EPIIntStatus), (14 bytes).
    Removing epi.o(i.EPIIntUnregister), (18 bytes).
    Removing epi.o(i.EPINonBlockingReadAvail), (4 bytes).
    Removing epi.o(i.EPINonBlockingReadConfigure), (10 bytes).
    Removing epi.o(i.EPINonBlockingReadCount), (8 bytes).
    Removing epi.o(i.EPINonBlockingReadGet16), (36 bytes).
    Removing epi.o(i.EPINonBlockingReadGet32), (36 bytes).
    Removing epi.o(i.EPINonBlockingReadGet8), (36 bytes).
    Removing epi.o(i.EPINonBlockingReadStart), (8 bytes).
    Removing epi.o(i.EPINonBlockingReadStop), (10 bytes).
    Removing epi.o(i.EPIWriteFIFOCountGet), (6 bytes).
    Removing gpio.o(i.GPIODirModeGet), (34 bytes).
    Removing gpio.o(i.GPIOGetIntNumber), (156 bytes).
    Removing gpio.o(i.GPIOIntTypeGet), (48 bytes).
    Removing gpio.o(i.GPIOPadConfigGet), (140 bytes).
    Removing gpio.o(i.GPIOPinConfigure), (72 bytes).
    Removing gpio.o(i.GPIOPinIntDisable), (14 bytes).
    Removing gpio.o(i.GPIOPinTypeADC), (28 bytes).
    Removing gpio.o(i.GPIOPinTypeCAN), (28 bytes).
    Removing gpio.o(i.GPIOPinTypeComparator), (28 bytes).
    Removing gpio.o(i.GPIOPinTypeEPI), (28 bytes).
    Removing gpio.o(i.GPIOPinTypeEthernetLED), (28 bytes).
    Removing gpio.o(i.GPIOPinTypeGPIOOutputOD), (28 bytes).
    Removing gpio.o(i.GPIOPinTypeI2S), (28 bytes).
    Removing gpio.o(i.GPIOPinTypePWM), (28 bytes).
    Removing gpio.o(i.GPIOPinTypeQEI), (28 bytes).
    Removing gpio.o(i.GPIOPinTypeTimer), (28 bytes).
    Removing gpio.o(i.GPIOPinTypeUSBAnalog), (28 bytes).
    Removing gpio.o(i.GPIOPinTypeUSBDigital), (28 bytes).
    Removing gpio.o(i.GPIOPortIntRegister), (26 bytes).
    Removing gpio.o(i.GPIOPortIntUnregister), (22 bytes).
    Removing gpio.o(.constdata), (72 bytes).
    Removing i2c.o(i.I2CIntRegister), (32 bytes).
    Removing i2c.o(i.I2CIntUnregister), (32 bytes).
    Removing i2c.o(i.I2CMasterBusBusy), (12 bytes).
    Removing i2c.o(i.I2CMasterBusy), (12 bytes).
    Removing i2c.o(i.I2CMasterDisable), (10 bytes).
    Removing i2c.o(i.I2CMasterIntDisable), (6 bytes).
    Removing i2c.o(i.I2CMasterIntEnable), (6 bytes).
    Removing i2c.o(i.I2CSlaveDataGet), (4 bytes).
    Removing i2c.o(i.I2CSlaveDataPut), (4 bytes).
    Removing i2c.o(i.I2CSlaveDisable), (22 bytes).
    Removing i2c.o(i.I2CSlaveEnable), (22 bytes).
    Removing i2c.o(i.I2CSlaveInit), (24 bytes).
    Removing i2c.o(i.I2CSlaveIntClear), (6 bytes).
    Removing i2c.o(i.I2CSlaveIntClearEx), (4 bytes).
    Removing i2c.o(i.I2CSlaveIntDisable), (10 bytes).
    Removing i2c.o(i.I2CSlaveIntDisableEx), (10 bytes).
    Removing i2c.o(i.I2CSlaveIntEnable), (10 bytes).
    Removing i2c.o(i.I2CSlaveIntEnableEx), (8 bytes).
    Removing i2c.o(i.I2CSlaveIntStatus), (24 bytes).
    Removing i2c.o(i.I2CSlaveIntStatusEx), (56 bytes).
    Removing i2c.o(i.I2CSlaveStatus), (4 bytes).
    Removing interrupt.o(i.IntDefaultHandler), (2 bytes).
    Removing interrupt.o(i.IntPendClear), (72 bytes).
    Removing interrupt.o(i.IntPendSet), (90 bytes).
    Removing interrupt.o(i.IntPriorityGet), (28 bytes).
    Removing interrupt.o(i.IntPriorityGroupingGet), (40 bytes).
    Removing interrupt.o(i.IntPriorityGroupingSet), (28 bytes).
    Removing interrupt.o(i.IntPriorityMaskGet), (4 bytes).
    Removing interrupt.o(i.IntPriorityMaskSet), (4 bytes).
    Removing interrupt.o(i.IntPrioritySet), (40 bytes).
    Removing interrupt.o(i.IntRegister), (56 bytes).
    Removing interrupt.o(i.IntUnregister), (20 bytes).
    Removing interrupt.o(.constdata), (104 bytes).
    Removing interrupt.o(vtable), (284 bytes).
    Removing ssi.o(i.SSIBusy), (8 bytes).
    Removing ssi.o(i.SSIDMADisable), (10 bytes).
    Removing ssi.o(i.SSIDMAEnable), (8 bytes).
    Removing ssi.o(i.SSIDataGetNonBlocking), (18 bytes).
    Removing ssi.o(i.SSIDataPutNonBlocking), (16 bytes).
    Removing ssi.o(i.SSIDisable), (10 bytes).
    Removing ssi.o(i.SSIIntClear), (4 bytes).
    Removing ssi.o(i.SSIIntDisable), (10 bytes).
    Removing ssi.o(i.SSIIntEnable), (8 bytes).
    Removing ssi.o(i.SSIIntRegister), (32 bytes).
    Removing ssi.o(i.SSIIntStatus), (10 bytes).
    Removing ssi.o(i.SSIIntUnregister), (32 bytes).
    Removing sysctl.o(i.SysCtlADCSpeedGet), (16 bytes).
    Removing sysctl.o(i.SysCtlADCSpeedSet), (32 bytes).
    Removing sysctl.o(i.SysCtlBrownOutConfigSet), (16 bytes).
    Removing sysctl.o(i.SysCtlClkVerificationClear), (20 bytes).
    Removing sysctl.o(i.SysCtlDeepSleep), (32 bytes).
    Removing sysctl.o(i.SysCtlFlashSizeGet), (20 bytes).
    Removing sysctl.o(i.SysCtlGPIOAHBDisable), (20 bytes).
    Removing sysctl.o(i.SysCtlGPIOAHBEnable), (16 bytes).
    Removing sysctl.o(i.SysCtlI2SMClkSet), (216 bytes).
    Removing sysctl.o(i.SysCtlIOSCVerificationSet), (24 bytes).
    Removing sysctl.o(i.SysCtlIntClear), (12 bytes).
    Removing sysctl.o(i.SysCtlIntDisable), (16 bytes).
    Removing sysctl.o(i.SysCtlIntEnable), (16 bytes).
    Removing sysctl.o(i.SysCtlIntRegister), (20 bytes).
    Removing sysctl.o(i.SysCtlIntStatus), (16 bytes).
    Removing sysctl.o(i.SysCtlIntUnregister), (18 bytes).
    Removing sysctl.o(i.SysCtlLDOConfigSet), (12 bytes).
    Removing sysctl.o(i.SysCtlLDOGet), (12 bytes).
    Removing sysctl.o(i.SysCtlMOSCVerificationSet), (24 bytes).
    Removing sysctl.o(i.SysCtlPLLVerificationSet), (24 bytes).
    Removing sysctl.o(i.SysCtlPWMClockGet), (24 bytes).
    Removing sysctl.o(i.SysCtlPWMClockSet), (20 bytes).
    Removing sysctl.o(i.SysCtlPeripheralClockGating), (24 bytes).
    Removing sysctl.o(i.SysCtlPeripheralDeepSleepDisable), (32 bytes).
    Removing sysctl.o(i.SysCtlPeripheralDeepSleepEnable), (32 bytes).
    Removing sysctl.o(i.SysCtlPeripheralPresent), (64 bytes).
    Removing sysctl.o(i.SysCtlPeripheralSleepDisable), (32 bytes).
    Removing sysctl.o(i.SysCtlPeripheralSleepEnable), (32 bytes).
    Removing sysctl.o(i.SysCtlPinPresent), (16 bytes).
    Removing sysctl.o(i.SysCtlReset), (16 bytes).
    Removing sysctl.o(i.SysCtlResetCauseClear), (16 bytes).
    Removing sysctl.o(i.SysCtlResetCauseGet), (12 bytes).
    Removing sysctl.o(i.SysCtlSRAMSizeGet), (20 bytes).
    Removing sysctl.o(i.SysCtlUSBPLLDisable), (16 bytes).
    Removing sysctl.o(i.SysCtlUSBPLLEnable), (16 bytes).
    Removing systick.o(i.SysTickDisable), (14 bytes).
    Removing systick.o(i.SysTickIntDisable), (14 bytes).
    Removing systick.o(i.SysTickIntRegister), (24 bytes).
    Removing systick.o(i.SysTickIntUnregister), (18 bytes).
    Removing systick.o(i.SysTickPeriodGet), (10 bytes).
    Removing systick.o(i.SysTickValueGet), (8 bytes).
    Removing timer.o(i.TimerControlEvent), (24 bytes).
    Removing timer.o(i.TimerControlLevel), (22 bytes).
    Removing timer.o(i.TimerControlStall), (22 bytes).
    Removing timer.o(i.TimerControlTrigger), (22 bytes).
    Removing timer.o(i.TimerControlWaitOnTrigger), (48 bytes).
    Removing timer.o(i.TimerDisable), (16 bytes).
    Removing timer.o(i.TimerIntRegister), (94 bytes).
    Removing timer.o(i.TimerIntStatus), (10 bytes).
    Removing timer.o(i.TimerIntUnregister), (88 bytes).
    Removing timer.o(i.TimerLoadGet), (10 bytes).
    Removing timer.o(i.TimerMatchGet), (10 bytes).
    Removing timer.o(i.TimerMatchSet), (18 bytes).
    Removing timer.o(i.TimerPrescaleGet), (10 bytes).
    Removing timer.o(i.TimerPrescaleMatchGet), (10 bytes).
    Removing timer.o(i.TimerPrescaleMatchSet), (18 bytes).
    Removing timer.o(i.TimerQuiesce), (126 bytes).
    Removing timer.o(i.TimerRTCDisable), (10 bytes).
    Removing timer.o(i.TimerRTCEnable), (10 bytes).
    Removing uart.o(i.UARTBreakCtl), (18 bytes).
    Removing uart.o(i.UARTBusy), (8 bytes).
    Removing uart.o(i.UARTCharGet), (12 bytes).
    Removing uart.o(i.UARTCharPutNonBlocking), (18 bytes).
    Removing uart.o(i.UARTConfigGetExpClk), (46 bytes).
    Removing uart.o(i.UARTDMADisable), (10 bytes).
    Removing uart.o(i.UARTDMAEnable), (8 bytes).
    Removing uart.o(i.UARTDisable), (30 bytes).
    Removing uart.o(i.UARTDisableSIR), (10 bytes).
    Removing uart.o(i.UARTEnableSIR), (18 bytes).
    Removing uart.o(i.UARTFIFODisable), (10 bytes).
    Removing uart.o(i.UARTFIFOEnable), (10 bytes).
    Removing uart.o(i.UARTFIFOLevelGet), (16 bytes).
    Removing uart.o(i.UARTFlowControlGet), (8 bytes).
    Removing uart.o(i.UARTFlowControlSet), (12 bytes).
    Removing uart.o(i.UARTIntRegister), (46 bytes).
    Removing uart.o(i.UARTIntUnregister), (46 bytes).
    Removing uart.o(i.UARTModemControlClear), (14 bytes).
    Removing uart.o(i.UARTModemControlGet), (8 bytes).
    Removing uart.o(i.UARTModemControlSet), (12 bytes).
    Removing uart.o(i.UARTModemStatusGet), (10 bytes).
    Removing uart.o(i.UARTParityModeGet), (8 bytes).
    Removing uart.o(i.UARTParityModeSet), (12 bytes).
    Removing uart.o(i.UARTRxErrorClear), (6 bytes).
    Removing uart.o(i.UARTRxErrorGet), (8 bytes).
    Removing uart.o(i.UARTSmartCardDisable), (10 bytes).
    Removing uart.o(i.UARTSmartCardEnable), (22 bytes).
    Removing uart.o(i.UARTSpaceAvail), (10 bytes).
    Removing uart.o(i.UARTTxIntModeGet), (8 bytes).
    Removing uart.o(i.UARTTxIntModeSet), (12 bytes).
    Removing line.o(i.GrLineDraw), (696 bytes).

184 unused section(s) (total 6348 bytes) removed from the image.

==============================================================================

Image Symbol Table

    Local Symbols

    Symbol Name                              Value     Ov Type        Size  Object(Section)

    RESET                                    0x00000000   Section      300  startup.o(RESET)
    ../clib/angel/boardlib.s                 0x00000000   Number         0  boardinit3.o ABSOLUTE
    ../clib/angel/boardlib.s                 0x00000000   Number         0  boardinit2.o ABSOLUTE
    ../clib/angel/boardlib.s                 0x00000000   Number         0  boardshut.o ABSOLUTE
    ../clib/angel/boardlib.s                 0x00000000   Number         0  boardinit1.o ABSOLUTE
    ../clib/angel/handlers.s                 0x00000000   Number         0  __scatter_zi.o ABSOLUTE
    ../clib/angel/handlers.s                 0x00000000   Number         0  __scatter_copy.o ABSOLUTE
    ../clib/angel/kernel.s                   0x00000000   Number         0  rtexit.o ABSOLUTE
    ../clib/angel/kernel.s                   0x00000000   Number         0  rtexit2.o ABSOLUTE
    ../clib/angel/kernel.s                   0x00000000   Number         0  rtentry2.o ABSOLUTE
    ../clib/angel/kernel.s                   0x00000000   Number         0  rtentry4.o ABSOLUTE
    ../clib/angel/kernel.s                   0x00000000   Number         0  rtentry.o ABSOLUTE
    ../clib/angel/rt.s                       0x00000000   Number         0  rt_errno_addr_intlibspace.o ABSOLUTE
    ../clib/angel/rt.s                       0x00000000   Number         0  rt_locale_intlibspace.o ABSOLUTE
    ../clib/angel/rt.s                       0x00000000   Number         0  rt_locale.o ABSOLUTE
    ../clib/angel/rt.s                       0x00000000   Number         0  rt_errno_addr.o ABSOLUTE
    ../clib/angel/rt.s                       0x00000000   Number         0  rt_ctype_table.o ABSOLUTE
    ../clib/angel/rt.s                       0x00000000   Number         0  rt_raise.o ABSOLUTE
    ../clib/angel/scatter.s                  0x00000000   Number         0  __scatter.o ABSOLUTE
    ../clib/angel/startup.s                  0x00000000   Number         0  __main.o ABSOLUTE
    ../clib/angel/sys.s                      0x00000000   Number         0  use_no_semi.o ABSOLUTE
    ../clib/angel/sys.s                      0x00000000   Number         0  sys_stackheap_outer.o ABSOLUTE
    ../clib/angel/sys.s                      0x00000000   Number         0  indicate_semi.o ABSOLUTE
    ../clib/angel/sys.s                      0x00000000   Number         0  libspace.o ABSOLUTE
    ../clib/angel/sysapp.c                   0x00000000   Number         0  sys_wrch.o ABSOLUTE
    ../clib/angel/sysapp.c                   0x00000000   Number         0  sys_command.o ABSOLUTE
    ../clib/angel/sysapp.c                   0x00000000   Number         0  sys_exit.o ABSOLUTE
    ../clib/armsys.c                         0x00000000   Number         0  no_argv.o ABSOLUTE
    ../clib/armsys.c                         0x00000000   Number         0  _get_argv_nomalloc.o ABSOLUTE
    ../clib/armsys.c                         0x00000000   Number         0  argv_veneer.o ABSOLUTE
    ../clib/armsys.c                         0x00000000   Number         0  argv_veneer.o ABSOLUTE
    ../clib/bigflt.c                         0x00000000   Number         0  bigflt0.o ABSOLUTE
    ../clib/btod.s                           0x00000000   Number         0  btod.o ABSOLUTE
    ../clib/ctype.c                          0x00000000   Number         0  isprint.o ABSOLUTE
    ../clib/ctype.c                          0x00000000   Number         0  isspace.o ABSOLUTE
    ../clib/fenv.c                           0x00000000   Number         0  _rserrno.o ABSOLUTE
    ../clib/heapalloc.c                      0x00000000   Number         0  hrguard.o ABSOLUTE
    ../clib/heapaux.c                        0x00000000   Number         0  heapauxi.o ABSOLUTE
    ../clib/libinit.s                        0x00000000   Number         0  libinit.o ABSOLUTE
    ../clib/libinit.s                        0x00000000   Number         0  libinit2.o ABSOLUTE
    ../clib/libinit.s                        0x00000000   Number         0  libshutdown2.o ABSOLUTE
    ../clib/libinit.s                        0x00000000   Number         0  libshutdown.o ABSOLUTE
    ../clib/locale.s                         0x00000000   Number         0  lc_numeric_c.o ABSOLUTE
    ../clib/locale.s                         0x00000000   Number         0  lc_ctype_c.o ABSOLUTE
    ../clib/longlong.s                       0x00000000   Number         0  llshl.o ABSOLUTE
    ../clib/memcpset.s                       0x00000000   Number         0  rt_memclr.o ABSOLUTE
    ../clib/memcpset.s                       0x00000000   Number         0  strcmpv7m.o ABSOLUTE
    ../clib/memcpset.s                       0x00000000   Number         0  rt_memclr_w.o ABSOLUTE
    ../clib/memcpset.s                       0x00000000   Number         0  rt_memcpy_w.o ABSOLUTE
    ../clib/memcpset.s                       0x00000000   Number         0  rt_memcpy_v6.o ABSOLUTE
    ../clib/printf.c                         0x00000000   Number         0  _printf_char_common.o ABSOLUTE
    ../clib/printf.c                         0x00000000   Number         0  _sputc.o ABSOLUTE
    ../clib/printf.c                         0x00000000   Number         0  noretval__2sprintf.o ABSOLUTE
    ../clib/printf.c                         0x00000000   Number         0  __printf.o ABSOLUTE
    ../clib/printf.c                         0x00000000   Number         0  _printf_dec.o ABSOLUTE
    ../clib/printf.c                         0x00000000   Number         0  __printf_flags.o ABSOLUTE
    ../clib/printf.c                         0x00000000   Number         0  __printf_nopercent.o ABSOLUTE
    ../clib/printf.c                         0x00000000   Number         0  __printf_ss_wp.o ABSOLUTE
    ../clib/printf.c                         0x00000000   Number         0  __printf_ss.o ABSOLUTE
    ../clib/printf.c                         0x00000000   Number         0  __printf_flags_ss.o ABSOLUTE
    ../clib/printf.c                         0x00000000   Number         0  __printf_wp.o ABSOLUTE
    ../clib/printf.c                         0x00000000   Number         0  __printf_flags_wp.o ABSOLUTE
    ../clib/printf.c                         0x00000000   Number         0  __printf_flags_ss_wp.o ABSOLUTE
    ../clib/printf.c                         0x00000000   Number         0  __2sprintf.o ABSOLUTE
    ../clib/printf.c                         0x00000000   Number         0  _printf_intcommon.o ABSOLUTE
    ../clib/printf_percent.s                 0x00000000   Number         0  _printf_percent_end.o ABSOLUTE
    ../clib/printf_percent.s                 0x00000000   Number         0  _printf_d.o ABSOLUTE
    ../clib/printf_percent.s                 0x00000000   Number         0  _printf_percent.o ABSOLUTE
    ../clib/scanf.c                          0x00000000   Number         0  strtod.o ABSOLUTE
    ../clib/scanf.c                          0x00000000   Number         0  scanf_fp.o ABSOLUTE
    ../clib/scanf.c                          0x00000000   Number         0  _chval.o ABSOLUTE
    ../clib/scanf.c                          0x00000000   Number         0  _sgetc.o ABSOLUTE
    ../clib/scanf.c                          0x00000000   Number         0  scanf_infnan.o ABSOLUTE
    ../clib/scanf.c                          0x00000000   Number         0  scanf_hexfp.o ABSOLUTE
    ../clib/signal.c                         0x00000000   Number         0  defsig_rtmem_outer.o ABSOLUTE
    ../clib/signal.c                         0x00000000   Number         0  defsig_general.o ABSOLUTE
    ../clib/signal.c                         0x00000000   Number         0  defsig_other.o ABSOLUTE
    ../clib/signal.c                         0x00000000   Number         0  defsig_segv_inner.o ABSOLUTE
    ../clib/signal.c                         0x00000000   Number         0  defsig_cppl_inner.o ABSOLUTE
    ../clib/signal.c                         0x00000000   Number         0  defsig_pvfn_inner.o ABSOLUTE
    ../clib/signal.c                         0x00000000   Number         0  defsig_stak_inner.o ABSOLUTE
    ../clib/signal.c                         0x00000000   Number         0  defsig_rtred_inner.o ABSOLUTE
    ../clib/signal.c                         0x00000000   Number         0  defsig_fpe_inner.o ABSOLUTE
    ../clib/signal.c                         0x00000000   Number         0  defsig_abrt_inner.o ABSOLUTE
    ../clib/signal.c                         0x00000000   Number         0  __raise.o ABSOLUTE
    ../clib/signal.c                         0x00000000   Number         0  defsig_rtmem_inner.o ABSOLUTE
    ../clib/signal.c                         0x00000000   Number         0  defsig_exit.o ABSOLUTE
    ../clib/signal.c                         0x00000000   Number         0  defsig_rtmem_formal.o ABSOLUTE
    ../clib/signal.s                         0x00000000   Number         0  defsig.o ABSOLUTE
    ../clib/stdlib.c                         0x00000000   Number         0  exit.o ABSOLUTE
    ../clib/string.c                         0x00000000   Number         0  strcpy.o ABSOLUTE
    ../clib/string.c                         0x00000000   Number         0  strncmp.o ABSOLUTE
    ../fplib/d2f.s                           0x00000000   Number         0  d2f.o ABSOLUTE
    ../fplib/dcheck1.s                       0x00000000   Number         0  dcheck1.o ABSOLUTE
    ../fplib/dcmpi.s                         0x00000000   Number         0  dcmpi.o ABSOLUTE
    ../fplib/deqf.s                          0x00000000   Number         0  deqf.o ABSOLUTE
    ../fplib/dfix.s                          0x00000000   Number         0  dfix.o ABSOLUTE
    ../fplib/dleqf.s                         0x00000000   Number         0  dleqf.o ABSOLUTE
    ../fplib/dnaninf.s                       0x00000000   Number         0  dnaninf.o ABSOLUTE
    ../fplib/drleqf.s                        0x00000000   Number         0  drleqf.o ABSOLUTE
    ../fplib/fcmpi.s                         0x00000000   Number         0  fcmpi.o ABSOLUTE
    ../fplib/ffix.s                          0x00000000   Number         0  ffix.o ABSOLUTE
    ../fplib/fleqf.s                         0x00000000   Number         0  fleqf.o ABSOLUTE
    ../fplib/fnaninf.s                       0x00000000   Number         0  fnaninf.o ABSOLUTE
    ../fplib/fpconst.s                       0x00000000   Number         0  fpconst.o ABSOLUTE
    ../fplib/fpinit.s                        0x00000000   Number         0  fpinit.o ABSOLUTE
    ../fplib/fretinf.s                       0x00000000   Number         0  fretinf.o ABSOLUTE
    ../fplib/frleqf.s                        0x00000000   Number         0  frleqf.o ABSOLUTE
    ../fplib/istatus.s                       0x00000000   Number         0  istatus.o ABSOLUTE
    ../fplib/retnan.s                        0x00000000   Number         0  retnan.o ABSOLUTE
    ../fplib/scalbn.s                        0x00000000   Number         0  scalbn.o ABSOLUTE
    ../fplib/scanf1.s                        0x00000000   Number         0  scanf1.o ABSOLUTE
    ../fplib/scanf2.s                        0x00000000   Number         0  scanf2.o ABSOLUTE
    ../fplib/scanf2a.s                       0x00000000   Number         0  scanf2a.o ABSOLUTE
    ../fplib/scanf2b.s                       0x00000000   Number         0  scanf2b.o ABSOLUTE
    ../fplib/trapv.s                         0x00000000   Number         0  trapv.o ABSOLUTE
    ../fplib/usenofp.s                       0x00000000   Number         0  usenofp.o ABSOLUTE
    ../mathlib/atof.c                        0x00000000   Number         0  atof.o ABSOLUTE
    ../mathlib/dunder.c                      0x00000000   Number         0  dunder.o ABSOLUTE
    ../mathlib/frexp.c                       0x00000000   Number         0  frexp.o ABSOLUTE
    ../mathlib/ldexp.c                       0x00000000   Number         0  ldexp.o ABSOLUTE
    ../mathlib/ldexp.c                       0x00000000   Number         0  ldexp_x.o ABSOLUTE
    ../mathlib/narrow.c                      0x00000000   Number         0  narrow.o ABSOLUTE
    ../mathlib/qnan.c                        0x00000000   Number         0  qnan.o ABSOLUTE
    Library\drivers\kitronix320x240x16_ssd2119_8bit.c 0x00000000   Number         0  kitronix320x240x16_ssd2119_8bit.o ABSOLUTE
    Library\drivers\set_pinout.c             0x00000000   Number         0  set_pinout.o ABSOLUTE
    Middleware\evbRadio.c                    0x00000000   Number         0  evbradio.o ABSOLUTE
    Middleware\evboard.c                     0x00000000   Number         0  evboard.o ABSOLUTE
    Middleware\halNeighbor.c                 0x00000000   Number         0  halneighbor.o ABSOLUTE
    Middleware\halStack.c                    0x00000000   Number         0  halstack.o ABSOLUTE
    Target\Startup.s                         0x00000000   Number         0  startup.o ABSOLUTE
    Target\Target.c                          0x00000000   Number         0  target.o ABSOLUTE
    User\Main.c                              0x00000000   Number         0  main.o ABSOLUTE
    context.c                                0x00000000   Number         0  context.o ABSOLUTE
    cpu.c                                    0x00000000   Number         0  cpu.o ABSOLUTE
    cpu.c                                    0x00000000   Number         0  cpu.o ABSOLUTE
    dc.s                                     0x00000000   Number         0  dc.o ABSOLUTE
    epi.c                                    0x00000000   Number         0  epi.o ABSOLUTE
    fonts\fontcm30.c                         0x00000000   Number         0  fontcm30.o ABSOLUTE
    fonts\fontcm40.c                         0x00000000   Number         0  fontcm40.o ABSOLUTE
    gpio.c                                   0x00000000   Number         0  gpio.o ABSOLUTE
    i2c.c                                    0x00000000   Number         0  i2c.o ABSOLUTE
    interrupt.c                              0x00000000   Number         0  interrupt.o ABSOLUTE
    line.c                                   0x00000000   Number         0  line.o ABSOLUTE
    rectangle.c                              0x00000000   Number         0  rectangle.o ABSOLUTE
    ssi.c                                    0x00000000   Number         0  ssi.o ABSOLUTE
    stack\aps.c                              0x00000000   Number         0  aps.o ABSOLUTE
    stack\console.c                          0x00000000   Number         0  console.o ABSOLUTE
    stack\debug.c                            0x00000000   Number         0  debug.o ABSOLUTE
    stack\mac.c                              0x00000000   Number         0  mac.o ABSOLUTE
    stack\memalloc.c                         0x00000000   Number         0  memalloc.o ABSOLUTE
    stack\neighbor.c                         0x00000000   Number         0  neighbor.o ABSOLUTE
    stack\nwk.c                              0x00000000   Number         0  nwk.o ABSOLUTE
    stack\pcbind.c                           0x00000000   Number         0  pcbind.o ABSOLUTE
    stack\phy.c                              0x00000000   Number         0  phy.o ABSOLUTE
    stack\staticbind.c                       0x00000000   Number         0  staticbind.o ABSOLUTE
    stack\zep.c                              0x00000000   Number         0  zep.o ABSOLUTE
    string.c                                 0x00000000   Number         0  string.o ABSOLUTE
    sysctl.c                                 0x00000000   Number         0  sysctl.o ABSOLUTE
    sysctl.c                                 0x00000000   Number         0  sysctl.o ABSOLUTE
    systick.c                                0x00000000   Number         0  systick.o ABSOLUTE
    timer.c                                  0x00000000   Number         0  timer.o ABSOLUTE
    uCOS-II\Ports\os_cpu_a.asm               0x00000000   Number         0  os_cpu_a.o ABSOLUTE
    uCOS-II\Ports\os_cpu_c.c                 0x00000000   Number         0  os_cpu_c.o ABSOLUTE
    uCOS-II\Source\OS_CORE.C                 0x00000000   Number         0  os_core.o ABSOLUTE
    uCOS-II\Source\OS_FLAG.C                 0x00000000   Number         0  os_flag.o ABSOLUTE
    uCOS-II\Source\OS_MBOX.C                 0x00000000   Number         0  os_mbox.o ABSOLUTE
    uCOS-II\Source\OS_MEM.C                  0x00000000   Number         0  os_mem.o ABSOLUTE
    uCOS-II\Source\OS_MUTEX.C                0x00000000   Number         0  os_mutex.o ABSOLUTE
    uCOS-II\Source\OS_Q.C                    0x00000000   Number         0  os_q.o ABSOLUTE
    uCOS-II\Source\OS_SEM.C                  0x00000000   Number         0  os_sem.o ABSOLUTE
    uCOS-II\Source\OS_TASK.C                 0x00000000   Number         0  os_task.o ABSOLUTE
    uCOS-II\Source\OS_TIME.C                 0x00000000   Number         0  os_time.o ABSOLUTE
    uart.c                                   0x00000000   Number         0  uart.o ABSOLUTE
    NmiSR                                    0x00000121   Thumb Code     0  startup.o(RESET)
    IntDefaultHandler                        0x00000125   Thumb Code     0  startup.o(RESET)
    !!!main                                  0x0000012c   Section        8  __main.o(!!!main)
    !!!scatter                               0x00000134   Section       52  __scatter.o(!!!scatter)
    !!handler_copy                           0x00000168   Section       26  __scatter_copy.o(!!handler_copy)
    !!handler_zi                             0x00000184   Section       28  __scatter_zi.o(!!handler_zi)
    .ARM.Collect$$_printf_percent$$00000000  0x000001a0   Section        0  _printf_percent.o(.ARM.Collect$$_printf_percent$$00000000)
    .ARM.Collect$$_printf_percent$$00000009  0x000001a0   Section        6  _printf_d.o(.ARM.Collect$$_printf_percent$$00000009)
    .ARM.Collect$$_printf_percent$$00000017  0x000001a6   Section        4  _printf_percent_end.o(.ARM.Collect$$_printf_percent$$00000017)
    .ARM.Collect$$libinit$$00000000          0x000001aa   Section        2  libinit.o(.ARM.Collect$$libinit$$00000000)
    .ARM.Collect$$libinit$$00000002          0x000001ac   Section        0  libinit2.o(.ARM.Collect$$libinit$$00000002)
    .ARM.Collect$$libinit$$00000008          0x000001ac   Section        0  libinit2.o(.ARM.Collect$$libinit$$00000008)
    .ARM.Collect$$libinit$$0000000A          0x000001ac   Section        0  libinit2.o(.ARM.Collect$$libinit$$0000000A)
    .ARM.Collect$$libinit$$0000000C          0x000001ac   Section        0  libinit2.o(.ARM.Collect$$libinit$$0000000C)
    .ARM.Collect$$libinit$$0000000D          0x000001ac   Section        6  libinit2.o(.ARM.Collect$$libinit$$0000000D)
    .ARM.Collect$$libinit$$0000000F          0x000001b2   Section        0  libinit2.o(.ARM.Collect$$libinit$$0000000F)
    .ARM.Collect$$libinit$$00000010          0x000001b2   Section       12  libinit2.o(.ARM.Collect$$libinit$$00000010)
    .ARM.Collect$$libinit$$00000011          0x000001be   Section        0  libinit2.o(.ARM.Collect$$libinit$$00000011)
    .ARM.Collect$$libinit$$00000013          0x000001be   Section        0  libinit2.o(.ARM.Collect$$libinit$$00000013)
    .ARM.Collect$$libinit$$00000014          0x000001be   Section       10  libinit2.o(.ARM.Collect$$libinit$$00000014)
    .ARM.Collect$$libinit$$00000015          0x000001c8   Section        0  libinit2.o(.ARM.Collect$$libinit$$00000015)
    .ARM.Collect$$libinit$$00000017          0x000001c8   Section        0  libinit2.o(.ARM.Collect$$libinit$$00000017)
    .ARM.Collect$$libinit$$00000019          0x000001c8   Section        0  libinit2.o(.ARM.Collect$$libinit$$00000019)
    .ARM.Collect$$libinit$$0000001B          0x000001c8   Section        0  libinit2.o(.ARM.Collect$$libinit$$0000001B)
    .ARM.Collect$$libinit$$0000001D          0x000001c8   Section        0  libinit2.o(.ARM.Collect$$libinit$$0000001D)
    .ARM.Collect$$libinit$$0000001F          0x000001c8   Section        0  libinit2.o(.ARM.Collect$$libinit$$0000001F)
    .ARM.Collect$$libinit$$00000021          0x000001c8   Section        0  libinit2.o(.ARM.Collect$$libinit$$00000021)
    .ARM.Collect$$libinit$$00000023          0x000001c8   Section        0  libinit2.o(.ARM.Collect$$libinit$$00000023)
    .ARM.Collect$$libinit$$0000002A          0x000001c8   Section        0  libinit2.o(.ARM.Collect$$libinit$$0000002A)
    .ARM.Collect$$libinit$$0000002C          0x000001c8   Section        0  libinit2.o(.ARM.Collect$$libinit$$0000002C)
    .ARM.Collect$$libinit$$0000002E          0x000001c8   Section        0  libinit2.o(.ARM.Collect$$libinit$$0000002E)
    .ARM.Collect$$libinit$$00000030          0x000001c8   Section        0  libinit2.o(.ARM.Collect$$libinit$$00000030)
    .ARM.Collect$$libinit$$00000031          0x000001c8   Section        2  libinit2.o(.ARM.Collect$$libinit$$00000031)
    .ARM.Collect$$libshutdown$$00000000      0x000001ca   Section        2  libshutdown.o(.ARM.Collect$$libshutdown$$00000000)
    .ARM.Collect$$libshutdown$$00000003      0x000001cc   Section        0  libshutdown2.o(.ARM.Collect$$libshutdown$$00000003)
    .ARM.Collect$$libshutdown$$00000006      0x000001cc   Section        0  libshutdown2.o(.ARM.Collect$$libshutdown$$00000006)
    .ARM.Collect$$libshutdown$$00000009      0x000001cc   Section        0  libshutdown2.o(.ARM.Collect$$libshutdown$$00000009)
    .ARM.Collect$$libshutdown$$0000000B      0x000001cc   Section        0  libshutdown2.o(.ARM.Collect$$libshutdown$$0000000B)
    .ARM.Collect$$libshutdown$$0000000E      0x000001cc   Section        0  libshutdown2.o(.ARM.Collect$$libshutdown$$0000000E)
    .ARM.Collect$$libshutdown$$0000000F      0x000001cc   Section        2  libshutdown2.o(.ARM.Collect$$libshutdown$$0000000F)
    .ARM.Collect$$rtentry$$00000000          0x000001ce   Section        0  rtentry.o(.ARM.Collect$$rtentry$$00000000)
    .ARM.Collect$$rtentry$$00000002          0x000001ce   Section        0  rtentry2.o(.ARM.Collect$$rtentry$$00000002)
    .ARM.Collect$$rtentry$$00000004          0x000001ce   Section        6  rtentry4.o(.ARM.Collect$$rtentry$$00000004)
    .ARM.Collect$$rtentry$$00000009          0x000001d4   Section        0  rtentry2.o(.ARM.Collect$$rtentry$$00000009)
    .ARM.Collect$$rtentry$$0000000A          0x000001d4   Section        4  rtentry2.o(.ARM.Collect$$rtentry$$0000000A)
    .ARM.Collect$$rtentry$$0000000C          0x000001d8   Section        0  rtentry2.o(.ARM.Collect$$rtentry$$0000000C)
    .ARM.Collect$$rtentry$$0000000D          0x000001d8   Section        8  rtentry2.o(.ARM.Collect$$rtentry$$0000000D)
    .ARM.Collect$$rtexit$$00000000           0x000001e0   Section        2  rtexit.o(.ARM.Collect$$rtexit$$00000000)
    .ARM.Collect$$rtexit$$00000002           0x000001e2   Section        0  rtexit2.o(.ARM.Collect$$rtexit$$00000002)
    .ARM.Collect$$rtexit$$00000003           0x000001e2   Section        4  rtexit2.o(.ARM.Collect$$rtexit$$00000003)
    .ARM.Collect$$rtexit$$00000004           0x000001e6   Section        6  rtexit2.o(.ARM.Collect$$rtexit$$00000004)
    .emb_text                                0x000001ec   Section        6  sysctl.o(.emb_text)
    .emb_text                                0x000001f4   Section       38  cpu.o(.emb_text)
    .text                                    0x0000021c   Section        0  evboard.o(.text)
    .text                                    0x00000ba8   Section        0  evbradio.o(.text)
    .text                                    0x00000dec   Section        0  halstack.o(.text)
    .text                                    0x0000117c   Section       28  startup.o(.text)
    .text                                    0x00001198   Section        0  target.o(.text)
    tickInit                                 0x00001707   Thumb Code    30  target.o(.text)
    .text                                    0x00001bc4   Section        0  aps.o(.text)
    apsCheckAck                              0x00001c29   Thumb Code   104  aps.o(.text)
    apsParseHdr                              0x00001c91   Thumb Code   202  aps.o(.text)
    apsRxFSM                                 0x00001d5b   Thumb Code   428  aps.o(.text)
    apsInjectTxPacket                        0x00001f07   Thumb Code   102  aps.o(.text)
    apsInjectPacket                          0x0000225d   Thumb Code   228  aps.o(.text)
    apsFormatAck                             0x00002341   Thumb Code   196  aps.o(.text)
    apsTxFSM                                 0x00002405   Thumb Code   202  aps.o(.text)
    .text                                    0x00002a90   Section        0  console.o(.text)
    .text                                    0x00002c38   Section        0  debug.o(.text)
    dbgPrintMacCmd                           0x00002f79   Thumb Code   440  debug.o(.text)
    dbgPrintBeacon                           0x00003131   Thumb Code   224  debug.o(.text)
    .text                                    0x000037ec   Section        0  mac.o(.text)
    macTxData                                0x00003939   Thumb Code   528  mac.o(.text)
    macFormatAssociationResponse             0x00003b49   Thumb Code   268  mac.o(.text)
    macFormatBeacon                          0x00003c55   Thumb Code   278  mac.o(.text)
    macFormatCoordRealign                    0x00003d6b   Thumb Code   142  mac.o(.text)
    macFormatAssocRequest                    0x00003df9   Thumb Code    48  mac.o(.text)
    macFormatOrphanNotify                    0x00003e29   Thumb Code    20  mac.o(.text)
    macCheckDataRejection                    0x00003e73   Thumb Code   132  mac.o(.text)
    macParseBeacon                           0x00003ef7   Thumb Code   178  mac.o(.text)
    macParseHdr                              0x00003fa9   Thumb Code   280  mac.o(.text)
    macRxFSM                                 0x00004107   Thumb Code   322  mac.o(.text)
    macTxFSM                                 0x00004249   Thumb Code   186  mac.o(.text)
    .text                                    0x00004928   Section        0  memalloc.o(.text)
    .text                                    0x00004aac   Section        0  neighbor.o(.text)
    .text                                    0x00004f84   Section        0  nwk.o(.text)
    nwkFreeRxPacket                          0x0000512b   Thumb Code    44  nwk.o(.text)
    nwkGetRxPacket                           0x00005157   Thumb Code    40  nwk.o(.text)
    nwkRxBuffEmpty                           0x000051fb   Thumb Code    20  nwk.o(.text)
    nwkRxBuffFull                            0x0000520f   Thumb Code    30  nwk.o(.text)
    nwkParseHdr                              0x0000522d   Thumb Code    50  nwk.o(.text)
    nwkRxFSM                                 0x0000525f   Thumb Code   248  nwk.o(.text)
    .text                                    0x000056c4   Section        0  phy.o(.text)
    .text                                    0x000057b0   Section        0  staticbind.o(.text)
    .text                                    0x00005890   Section        0  zep.o(.text)
    zepHandleEndDeviceAnnounce               0x000058dd   Thumb Code    46  zep.o(.text)
    zepCommonFmt                             0x00005999   Thumb Code    76  zep.o(.text)
    .text                                    0x00005b08   Section        0  os_task.o(.text)
    .text                                    0x00005c7c   Section        0  os_core.o(.text)
    OS_InitTaskIdle                          0x00005c99   Thumb Code    18  os_core.o(.text)
    OS_InitEventList                         0x00005cab   Thumb Code     2  os_core.o(.text)
    OS_InitTCBList                           0x00005cad   Thumb Code    64  os_core.o(.text)
    OS_InitRdyList                           0x00005ced   Thumb Code    46  os_core.o(.text)
    OS_InitMisc                              0x00005d1b   Thumb Code    28  os_core.o(.text)
    .text                                    0x0000605c   Section        0  os_cpu_c.o(.text)
    .text                                    0x00006108   Section        0  kitronix320x240x16_ssd2119_8bit.o(.text)
    WriteDataGPIO                            0x00006109   Thumb Code    56  kitronix320x240x16_ssd2119_8bit.o(.text)
    WriteDataEPI                             0x00006141   Thumb Code    12  kitronix320x240x16_ssd2119_8bit.o(.text)
    WriteCommandEPI                          0x0000614d   Thumb Code    14  kitronix320x240x16_ssd2119_8bit.o(.text)
    WriteDataFPGA                            0x0000615b   Thumb Code    18  kitronix320x240x16_ssd2119_8bit.o(.text)
    WriteCommandFPGA                         0x0000616d   Thumb Code    18  kitronix320x240x16_ssd2119_8bit.o(.text)
    WriteCommandGPIO                         0x0000617f   Thumb Code    60  kitronix320x240x16_ssd2119_8bit.o(.text)
    InitGPIOLCDInterface                     0x000061bb   Thumb Code   234  kitronix320x240x16_ssd2119_8bit.o(.text)
    InitSRAMDaughterLCDInterface             0x000062a5   Thumb Code    64  kitronix320x240x16_ssd2119_8bit.o(.text)
    InitFPGADaughterLCDInterface             0x000062e5   Thumb Code    62  kitronix320x240x16_ssd2119_8bit.o(.text)
    Kitronix320x240x16_SSD2119PixelDraw      0x000065b3   Thumb Code    64  kitronix320x240x16_ssd2119_8bit.o(.text)
    Kitronix320x240x16_SSD2119PixelDrawMultiple 0x000065f3   Thumb Code   362  kitronix320x240x16_ssd2119_8bit.o(.text)
    Kitronix320x240x16_SSD2119LineDrawH      0x0000675d   Thumb Code    94  kitronix320x240x16_ssd2119_8bit.o(.text)
    Kitronix320x240x16_SSD2119LineDrawV      0x000067bb   Thumb Code    94  kitronix320x240x16_ssd2119_8bit.o(.text)
    Kitronix320x240x16_SSD2119RectFill       0x00006819   Thumb Code   232  kitronix320x240x16_ssd2119_8bit.o(.text)
    Kitronix320x240x16_SSD2119ColorTranslate 0x00006901   Thumb Code    24  kitronix320x240x16_ssd2119_8bit.o(.text)
    Kitronix320x240x16_SSD2119Flush          0x00006919   Thumb Code     2  kitronix320x240x16_ssd2119_8bit.o(.text)
    .text                                    0x00006924   Section        0  set_pinout.o(.text)
    EEPROMReadPolled                         0x00006925   Thumb Code   236  set_pinout.o(.text)
    DaughterBoardTypeGet                     0x00006a11   Thumb Code   166  set_pinout.o(.text)
    EPIDividerFromRate                       0x00006ab7   Thumb Code    52  set_pinout.o(.text)
    CalcEPIDivider                           0x00006aeb   Thumb Code    58  set_pinout.o(.text)
    HB8ConfigGet                             0x00006b25   Thumb Code   160  set_pinout.o(.text)
    SDRAMConfigGet                           0x00006bc5   Thumb Code    64  set_pinout.o(.text)
    EPIPinConfigSet                          0x00006c05   Thumb Code   312  set_pinout.o(.text)
    PortControlSet                           0x00006d3d   Thumb Code   170  set_pinout.o(.text)
    .text                                    0x00006ed4   Section        0  main.o(.text)
    taskForm                                 0x00006ed5   Thumb Code   110  main.o(.text)
    taskStart                                0x00006f43   Thumb Code    26  main.o(.text)
    .text                                    0x00006fa0   Section        0  isprint.o(.text)
    .text                                    0x00006fb4   Section        0  noretval__2sprintf.o(.text)
    .text                                    0x00006fdc   Section        0  __printf.o(.text)
    .text                                    0x00007044   Section        0  _printf_dec.o(.text)
    .text                                    0x000070bc   Section        0  strcpy.o(.text)
    .text                                    0x00007104   Section        0  strncmp.o(.text)
    .text                                    0x0000719a   Section      138  rt_memcpy_v6.o(.text)
    .text                                    0x00007224   Section       68  rt_memclr.o(.text)
    .text                                    0x00007268   Section       78  rt_memclr_w.o(.text)
    .text                                    0x000072b6   Section        0  heapauxi.o(.text)
    .text                                    0x000072bc   Section       16  rt_ctype_table.o(.text)
    .text                                    0x000072cc   Section        0  _rserrno.o(.text)
    .text                                    0x000072e2   Section        0  _printf_intcommon.o(.text)
    .text                                    0x0000739c   Section        0  _printf_char_common.o(.text)
    _printf_input_char                       0x0000739d   Thumb Code    10  _printf_char_common.o(.text)
    .text                                    0x000073cc   Section        0  _sputc.o(.text)
    .text                                    0x000073d8   Section        0  strtod.o(.text)
    _local_sscanf                            0x000073d9   Thumb Code    60  strtod.o(.text)
    .text                                    0x00007478   Section      100  rt_memcpy_w.o(.text)
    .text                                    0x000074dc   Section        8  rt_locale_intlibspace.o(.text)
    .text                                    0x000074e4   Section        8  rt_errno_addr_intlibspace.o(.text)
    .text                                    0x000074ec   Section        0  isspace.o(.text)
    .text                                    0x000074fe   Section        0  _sgetc.o(.text)
    .text                                    0x00007540   Section        8  libspace.o(.text)
    .text                                    0x00007548   Section       74  sys_stackheap_outer.o(.text)
    .text                                    0x00007594   Section        0  scanf_fp.o(.text)
    _fp_value                                0x00007595   Thumb Code   504  scanf_fp.o(.text)
    .text                                    0x00007a38   Section        0  exit.o(.text)
    .text                                    0x00007a44   Section      128  strcmpv7m.o(.text)
    .text                                    0x00007ac4   Section        0  bigflt0.o(.text)
    .text                                    0x00007ba8   Section        0  scanf_hexfp.o(.text)
    .text                                    0x00007ebc   Section        0  scanf_infnan.o(.text)
    .text                                    0x00007ff8   Section        0  sys_exit.o(.text)
    .text                                    0x00008004   Section       38  llshl.o(.text)
    .text                                    0x0000802a   Section        0  _chval.o(.text)
    .text                                    0x00008046   Section        2  use_no_semi.o(.text)
    .text                                    0x00008048   Section        0  indicate_semi.o(.text)
    CL$$btod_div_common                      0x00008048   Section      824  btod.o(CL$$btod_div_common)
    CL$$btod_e2d                             0x00008380   Section       84  btod.o(CL$$btod_e2d)
    CL$$btod_e2e                             0x000083d4   Section      198  btod.o(CL$$btod_e2e)
    CL$$btod_ediv                            0x0000849a   Section       40  btod.o(CL$$btod_ediv)
    CL$$btod_edivd                           0x000084c2   Section       40  btod.o(CL$$btod_edivd)
    CL$$btod_emul                            0x000084ea   Section       40  btod.o(CL$$btod_emul)
    CL$$btod_emuld                           0x00008512   Section       40  btod.o(CL$$btod_emuld)
    CL$$btod_mult_common                     0x0000853a   Section      580  btod.o(CL$$btod_mult_common)
    UCOSII_ASM                               0x00008780   Section      232  os_cpu_a.o(UCOSII_ASM)
    i.EPIAddressMapSet                       0x00008868   Section        0  epi.o(i.EPIAddressMapSet)
    i.EPIConfigGPModeSet                     0x0000886c   Section        0  epi.o(i.EPIConfigGPModeSet)
    i.EPIConfigHB8Set                        0x0000888e   Section        0  epi.o(i.EPIConfigHB8Set)
    i.EPIConfigSDRAMSet                      0x000088bc   Section        0  epi.o(i.EPIConfigSDRAMSet)
    i.EPIDividerSet                          0x000088c8   Section        0  epi.o(i.EPIDividerSet)
    i.EPIModeSet                             0x000088cc   Section        0  epi.o(i.EPIModeSet)
    i.GPIODirModeSet                         0x000088d0   Section        0  gpio.o(i.GPIODirModeSet)
    i.GPIOIntTypeSet                         0x000088f8   Section        0  gpio.o(i.GPIOIntTypeSet)
    i.GPIOPadConfigSet                       0x00008932   Section        0  gpio.o(i.GPIOPadConfigSet)
    i.GPIOPinIntClear                        0x000089e2   Section        0  gpio.o(i.GPIOPinIntClear)
    i.GPIOPinIntEnable                       0x000089e8   Section        0  gpio.o(i.GPIOPinIntEnable)
    i.GPIOPinIntStatus                       0x000089f4   Section        0  gpio.o(i.GPIOPinIntStatus)
    i.GPIOPinRead                            0x00008a02   Section        0  gpio.o(i.GPIOPinRead)
    i.GPIOPinTypeGPIOInput                   0x00008a08   Section        0  gpio.o(i.GPIOPinTypeGPIOInput)
    i.GPIOPinTypeGPIOOutput                  0x00008a24   Section        0  gpio.o(i.GPIOPinTypeGPIOOutput)
    i.GPIOPinTypeI2C                         0x00008a40   Section        0  gpio.o(i.GPIOPinTypeI2C)
    i.GPIOPinTypeSSI                         0x00008a5c   Section        0  gpio.o(i.GPIOPinTypeSSI)
    i.GPIOPinTypeUART                        0x00008a78   Section        0  gpio.o(i.GPIOPinTypeUART)
    i.GPIOPinWrite                           0x00008a94   Section        0  gpio.o(i.GPIOPinWrite)
    i.GrContextInit                          0x00008a9a   Section        0  context.o(i.GrContextInit)
    i.GrLineDrawH                            0x00008aba   Section        0  line.o(i.GrLineDrawH)
    i.GrLineDrawV                            0x00008b12   Section        0  line.o(i.GrLineDrawV)
    i.GrRectDraw                             0x00008b64   Section        0  rectangle.o(i.GrRectDraw)
    i.GrRectFill                             0x00008bd0   Section        0  rectangle.o(i.GrRectFill)
    i.GrStringDraw                           0x00008c84   Section        0  string.o(i.GrStringDraw)
    i.GrStringWidthGet                       0x00008f2a   Section        0  string.o(i.GrStringWidthGet)
    i.I2CMasterControl                       0x00008f6c   Section        0  i2c.o(i.I2CMasterControl)
    i.I2CMasterDataGet                       0x00008f70   Section        0  i2c.o(i.I2CMasterDataGet)
    i.I2CMasterDataPut                       0x00008f74   Section        0  i2c.o(i.I2CMasterDataPut)
    i.I2CMasterEnable                        0x00008f78   Section        0  i2c.o(i.I2CMasterEnable)
    i.I2CMasterErr                           0x00008f82   Section        0  i2c.o(i.I2CMasterErr)
    i.I2CMasterInitExpClk                    0x00008f9c   Section        0  i2c.o(i.I2CMasterInitExpClk)
    i.I2CMasterIntClear                      0x00008fd0   Section        0  i2c.o(i.I2CMasterIntClear)
    i.I2CMasterIntStatus                     0x00008fd8   Section        0  i2c.o(i.I2CMasterIntStatus)
    i.I2CMasterSlaveAddrSet                  0x00008ff0   Section        0  i2c.o(i.I2CMasterSlaveAddrSet)
    i.IntDisable                             0x00008ff8   Section        0  interrupt.o(i.IntDisable)
    i.IntEnable                              0x00009060   Section        0  interrupt.o(i.IntEnable)
    i.IntMasterDisable                       0x000090c8   Section        0  interrupt.o(i.IntMasterDisable)
    i.IntMasterEnable                        0x000090d2   Section        0  interrupt.o(i.IntMasterEnable)
    i.SSIConfigSetExpClk                     0x000090dc   Section        0  ssi.o(i.SSIConfigSetExpClk)
    i.SSIDataGet                             0x00009128   Section        0  ssi.o(i.SSIDataGet)
    i.SSIDataPut                             0x00009136   Section        0  ssi.o(i.SSIDataPut)
    i.SSIEnable                              0x00009142   Section        0  ssi.o(i.SSIEnable)
    i.SysCtlClockGet                         0x0000914c   Section        0  sysctl.o(i.SysCtlClockGet)
    i.SysCtlClockSet                         0x00009330   Section        0  sysctl.o(i.SysCtlClockSet)
    i.SysCtlLDOSet                           0x00009468   Section        0  sysctl.o(i.SysCtlLDOSet)
    i.SysCtlPeripheralDisable                0x00009474   Section        0  sysctl.o(i.SysCtlPeripheralDisable)
    i.SysCtlPeripheralEnable                 0x00009494   Section        0  sysctl.o(i.SysCtlPeripheralEnable)
    i.SysCtlPeripheralReset                  0x000094b4   Section        0  sysctl.o(i.SysCtlPeripheralReset)
    i.SysCtlSleep                            0x000094ec   Section        0  sysctl.o(i.SysCtlSleep)
    i.SysTickEnable                          0x000094f0   Section        0  systick.o(i.SysTickEnable)
    i.SysTickIntEnable                       0x000094fe   Section        0  systick.o(i.SysTickIntEnable)
    i.SysTickPeriodSet                       0x0000950c   Section        0  systick.o(i.SysTickPeriodSet)
    i.TimerConfigure                         0x00009516   Section        0  timer.o(i.TimerConfigure)
    i.TimerEnable                            0x00009532   Section        0  timer.o(i.TimerEnable)
    i.TimerIntClear                          0x00009540   Section        0  timer.o(i.TimerIntClear)
    i.TimerIntDisable                        0x00009544   Section        0  timer.o(i.TimerIntDisable)
    i.TimerIntEnable                         0x0000954e   Section        0  timer.o(i.TimerIntEnable)
    i.TimerLoadSet                           0x00009556   Section        0  timer.o(i.TimerLoadSet)
    i.TimerPrescaleSet                       0x00009568   Section        0  timer.o(i.TimerPrescaleSet)
    i.TimerValueGet                          0x0000957a   Section        0  timer.o(i.TimerValueGet)
    i.UARTCharGetNonBlocking                 0x00009584   Section        0  uart.o(i.UARTCharGetNonBlocking)
    i.UARTCharPut                            0x00009594   Section        0  uart.o(i.UARTCharPut)
    i.UARTCharsAvail                         0x000095a0   Section        0  uart.o(i.UARTCharsAvail)
    i.UARTConfigSetExpClk                    0x000095aa   Section        0  uart.o(i.UARTConfigSetExpClk)
    i.UARTEnable                             0x00009618   Section        0  uart.o(i.UARTEnable)
    i.UARTFIFOLevelSet                       0x0000962c   Section        0  uart.o(i.UARTFIFOLevelSet)
    i.UARTIntClear                           0x00009632   Section        0  uart.o(i.UARTIntClear)
    i.UARTIntDisable                         0x00009636   Section        0  uart.o(i.UARTIntDisable)
    i.UARTIntEnable                          0x00009640   Section        0  uart.o(i.UARTIntEnable)
    i.UARTIntStatus                          0x00009648   Section        0  uart.o(i.UARTIntStatus)
    i.__mathlib_dbl_underflow                0x00009654   Section        0  dunder.o(i.__mathlib_dbl_underflow)
    i.__mathlib_narrow                       0x00009664   Section        0  narrow.o(i.__mathlib_narrow)
    i.__mathlib_tofloat                      0x00009674   Section        0  narrow.o(i.__mathlib_tofloat)
    i.__support_ldexp                        0x000096fc   Section        0  ldexp.o(i.__support_ldexp)
    i._is_digit                              0x00009712   Section        0  __printf_wp.o(i._is_digit)
    i.atof                                   0x00009720   Section        0  atof.o(i.atof)
    i.frexp                                  0x0000974c   Section        0  frexp.o(i.frexp)
    i.ldexp                                  0x000097a4   Section        0  ldexp.o(i.ldexp)
    locale$$code                             0x00009824   Section       44  lc_ctype_c.o(locale$$code)
    locale$$code                             0x00009850   Section       44  lc_numeric_c.o(locale$$code)
    x$fpl$d2f                                0x0000987c   Section       98  d2f.o(x$fpl$d2f)
    x$fpl$dcheck1                            0x000098e0   Section       16  dcheck1.o(x$fpl$dcheck1)
    x$fpl$dcmpinf                            0x000098f0   Section       24  dcmpi.o(x$fpl$dcmpinf)
    x$fpl$deqf                               0x00009908   Section      120  deqf.o(x$fpl$deqf)
    x$fpl$dfix                               0x00009980   Section       94  dfix.o(x$fpl$dfix)
    x$fpl$dleqf                              0x000099e0   Section      120  dleqf.o(x$fpl$dleqf)
    x$fpl$dnaninf                            0x00009a58   Section      156  dnaninf.o(x$fpl$dnaninf)
    x$fpl$drleqf                             0x00009af4   Section      108  drleqf.o(x$fpl$drleqf)
    x$fpl$fcmpinf                            0x00009b60   Section       24  fcmpi.o(x$fpl$fcmpinf)
    x$fpl$ffix                               0x00009b78   Section       54  ffix.o(x$fpl$ffix)
    x$fpl$fleqf                              0x00009bb0   Section      104  fleqf.o(x$fpl$fleqf)
    x$fpl$fnaninf                            0x00009c18   Section      140  fnaninf.o(x$fpl$fnaninf)
    x$fpl$fretinf                            0x00009ca4   Section       10  fretinf.o(x$fpl$fretinf)
    x$fpl$frleqf                             0x00009cae   Section       98  frleqf.o(x$fpl$frleqf)
    x$fpl$retnan                             0x00009d10   Section      100  retnan.o(x$fpl$retnan)
    x$fpl$scalbn                             0x00009d74   Section       92  scalbn.o(x$fpl$scalbn)
    x$fpl$scanf1                             0x00009dd0   Section        4  scanf1.o(x$fpl$scanf1)
    x$fpl$scanf2                             0x00009dd4   Section        8  scanf2.o(x$fpl$scanf2)
    x$fpl$trapveneer                         0x00009ddc   Section       48  trapv.o(x$fpl$trapveneer)
    .constdata                               0x00009e0c   Section       13  evboard.o(.constdata)
    x$fpl$usenofp                            0x00009e0c   Section        0  usenofp.o(x$fpl$usenofp)
    xxxxromstr                               0x00009e0c   Data          13  evboard.o(.constdata)
    .constdata                               0x00009e19   Section      108  console.o(.constdata)
    xxxxromstr                               0x00009e19   Data           2  console.o(.constdata)
    xxxxromstr                               0x00009e1b   Data           3  console.o(.constdata)
    xxxxromstr                               0x00009e1e   Data           3  console.o(.constdata)
    xxxxromstr                               0x00009e21   Data           3  console.o(.constdata)
    xxxxromstr                               0x00009e24   Data           3  console.o(.constdata)
    xxxxromstr                               0x00009e27   Data          24  console.o(.constdata)
    xxxxromstr                               0x00009e3f   Data           6  console.o(.constdata)
    xxxxromstr                               0x00009e45   Data          14  console.o(.constdata)
    xxxxromstr                               0x00009e53   Data          10  console.o(.constdata)
    xxxxromstr                               0x00009e5d   Data          21  console.o(.constdata)
    xxxxromstr                               0x00009e72   Data          19  console.o(.constdata)
    .constdata                               0x00009e85   Section     1315  debug.o(.constdata)
    xxxxromstr                               0x00009e85   Data          17  debug.o(.constdata)
    xxxxromstr                               0x00009e96   Data           3  debug.o(.constdata)
    xxxxromstr                               0x00009e99   Data           2  debug.o(.constdata)
    xxxxromstr                               0x00009e9b   Data          40  debug.o(.constdata)
    xxxxromstr                               0x00009ec3   Data           9  debug.o(.constdata)
    xxxxromstr                               0x00009ecc   Data           2  debug.o(.constdata)
    xxxxromstr                               0x00009ece   Data          20  debug.o(.constdata)
    xxxxromstr                               0x00009ee2   Data           2  debug.o(.constdata)
    xxxxromstr                               0x00009ee4   Data          15  debug.o(.constdata)
    xxxxromstr                               0x00009ef3   Data           4  debug.o(.constdata)
    xxxxromstr                               0x00009ef7   Data           4  debug.o(.constdata)
    xxxxromstr                               0x00009efb   Data           4  debug.o(.constdata)
    xxxxromstr                               0x00009eff   Data           4  debug.o(.constdata)
    xxxxromstr                               0x00009f03   Data           4  debug.o(.constdata)
    xxxxromstr                               0x00009f07   Data          12  debug.o(.constdata)
    xxxxromstr                               0x00009f13   Data           2  debug.o(.constdata)
    xxxxromstr                               0x00009f15   Data           2  debug.o(.constdata)
    xxxxromstr                               0x00009f17   Data          11  debug.o(.constdata)
    xxxxromstr                               0x00009f22   Data           2  debug.o(.constdata)
    xxxxromstr                               0x00009f24   Data           2  debug.o(.constdata)
    xxxxromstr                               0x00009f26   Data          10  debug.o(.constdata)
    xxxxromstr                               0x00009f30   Data           2  debug.o(.constdata)
    xxxxromstr                               0x00009f32   Data           2  debug.o(.constdata)
    xxxxromstr                               0x00009f34   Data          12  debug.o(.constdata)
    xxxxromstr                               0x00009f40   Data           2  debug.o(.constdata)
    xxxxromstr                               0x00009f42   Data           2  debug.o(.constdata)
    xxxxromstr                               0x00009f44   Data          21  debug.o(.constdata)
    xxxxromstr                               0x00009f59   Data           2  debug.o(.constdata)
    xxxxromstr                               0x00009f5b   Data          12  debug.o(.constdata)
    xxxxromstr                               0x00009f67   Data           5  debug.o(.constdata)
    xxxxromstr                               0x00009f6c   Data           6  debug.o(.constdata)
    xxxxromstr                               0x00009f72   Data           5  debug.o(.constdata)
    xxxxromstr                               0x00009f77   Data           4  debug.o(.constdata)
    xxxxromstr                               0x00009f7b   Data          13  debug.o(.constdata)
    xxxxromstr                               0x00009f88   Data           5  debug.o(.constdata)
    xxxxromstr                               0x00009f8d   Data           6  debug.o(.constdata)
    xxxxromstr                               0x00009f93   Data           5  debug.o(.constdata)
    xxxxromstr                               0x00009f98   Data           4  debug.o(.constdata)
    xxxxromstr                               0x00009f9c   Data          21  debug.o(.constdata)
    xxxxromstr                               0x00009fb1   Data           2  debug.o(.constdata)
    xxxxromstr                               0x00009fb3   Data           2  debug.o(.constdata)
    xxxxromstr                               0x00009fb5   Data          22  debug.o(.constdata)
    xxxxromstr                               0x00009fcb   Data          25  debug.o(.constdata)
    xxxxromstr                               0x00009fe4   Data           2  debug.o(.constdata)
    xxxxromstr                               0x00009fe6   Data          21  debug.o(.constdata)
    xxxxromstr                               0x00009ffb   Data          24  debug.o(.constdata)
    xxxxromstr                               0x0000a013   Data           2  debug.o(.constdata)
    xxxxromstr                               0x0000a015   Data          19  debug.o(.constdata)
    xxxxromstr                               0x0000a028   Data          10  debug.o(.constdata)
    xxxxromstr                               0x0000a032   Data          14  debug.o(.constdata)
    xxxxromstr                               0x0000a040   Data          15  debug.o(.constdata)
    xxxxromstr                               0x0000a04f   Data          17  debug.o(.constdata)
    xxxxromstr                               0x0000a060   Data          13  debug.o(.constdata)
    xxxxromstr                               0x0000a06d   Data          13  debug.o(.constdata)
    xxxxromstr                               0x0000a07a   Data          20  debug.o(.constdata)
    xxxxromstr                               0x0000a08e   Data          15  debug.o(.constdata)
    xxxxromstr                               0x0000a09d   Data          14  debug.o(.constdata)
    xxxxromstr                               0x0000a0ab   Data          12  debug.o(.constdata)
    xxxxromstr                               0x0000a0b7   Data           8  debug.o(.constdata)
    xxxxromstr                               0x0000a0bf   Data          20  debug.o(.constdata)
    xxxxromstr                               0x0000a0d3   Data           2  debug.o(.constdata)
    xxxxromstr                               0x0000a0d5   Data          25  debug.o(.constdata)
    xxxxromstr                               0x0000a0ee   Data           8  debug.o(.constdata)
    xxxxromstr                               0x0000a0f6   Data          11  debug.o(.constdata)
    xxxxromstr                               0x0000a101   Data          17  debug.o(.constdata)
    xxxxromstr                               0x0000a112   Data          16  debug.o(.constdata)
    xxxxromstr                               0x0000a122   Data          11  debug.o(.constdata)
    xxxxromstr                               0x0000a12d   Data          15  debug.o(.constdata)
    xxxxromstr                               0x0000a13c   Data          13  debug.o(.constdata)
    xxxxromstr                               0x0000a149   Data          17  debug.o(.constdata)
    xxxxromstr                               0x0000a15a   Data           2  debug.o(.constdata)
    xxxxromstr                               0x0000a15c   Data           2  debug.o(.constdata)
    xxxxromstr                               0x0000a15e   Data          10  debug.o(.constdata)
    xxxxromstr                               0x0000a168   Data          17  debug.o(.constdata)
    xxxxromstr                               0x0000a179   Data           2  debug.o(.constdata)
    xxxxromstr                               0x0000a17b   Data           2  debug.o(.constdata)
    xxxxromstr                               0x0000a17d   Data          16  debug.o(.constdata)
    xxxxromstr                               0x0000a18d   Data           2  debug.o(.constdata)
    xxxxromstr                               0x0000a18f   Data          13  debug.o(.constdata)
    xxxxromstr                               0x0000a19c   Data           8  debug.o(.constdata)
    xxxxromstr                               0x0000a1a4   Data           5  debug.o(.constdata)
    xxxxromstr                               0x0000a1a9   Data           4  debug.o(.constdata)
    xxxxromstr                               0x0000a1ad   Data           4  debug.o(.constdata)
    xxxxromstr                               0x0000a1b1   Data          14  debug.o(.constdata)
    xxxxromstr                               0x0000a1bf   Data          20  debug.o(.constdata)
    xxxxromstr                               0x0000a1d3   Data           9  debug.o(.constdata)
    xxxxromstr                               0x0000a1dc   Data           7  debug.o(.constdata)
    xxxxromstr                               0x0000a1e3   Data           6  debug.o(.constdata)
    xxxxromstr                               0x0000a1e9   Data           4  debug.o(.constdata)
    xxxxromstr                               0x0000a1ed   Data          13  debug.o(.constdata)
    xxxxromstr                               0x0000a1fa   Data           2  debug.o(.constdata)
    xxxxromstr                               0x0000a1fc   Data           2  debug.o(.constdata)
    xxxxromstr                               0x0000a1fe   Data          10  debug.o(.constdata)
    xxxxromstr                               0x0000a208   Data          12  debug.o(.constdata)
    xxxxromstr                               0x0000a214   Data          11  debug.o(.constdata)
    xxxxromstr                               0x0000a21f   Data          14  debug.o(.constdata)
    xxxxromstr                               0x0000a22d   Data          13  debug.o(.constdata)
    xxxxromstr                               0x0000a23a   Data           8  debug.o(.constdata)
    xxxxromstr                               0x0000a242   Data           4  debug.o(.constdata)
    xxxxromstr                               0x0000a246   Data           4  debug.o(.constdata)
    xxxxromstr                               0x0000a24a   Data           4  debug.o(.constdata)
    xxxxromstr                               0x0000a24e   Data           4  debug.o(.constdata)
    xxxxromstr                               0x0000a252   Data          17  debug.o(.constdata)
    xxxxromstr                               0x0000a263   Data           7  debug.o(.constdata)
    xxxxromstr                               0x0000a26a   Data           9  debug.o(.constdata)
    xxxxromstr                               0x0000a273   Data           6  debug.o(.constdata)
    xxxxromstr                               0x0000a279   Data           4  debug.o(.constdata)
    xxxxromstr                               0x0000a27d   Data          20  debug.o(.constdata)
    xxxxromstr                               0x0000a291   Data           2  debug.o(.constdata)
    xxxxromstr                               0x0000a293   Data           2  debug.o(.constdata)
    xxxxromstr                               0x0000a295   Data          13  debug.o(.constdata)
    xxxxromstr                               0x0000a2a2   Data           2  debug.o(.constdata)
    xxxxromstr                               0x0000a2a4   Data           2  debug.o(.constdata)
    xxxxromstr                               0x0000a2a6   Data          11  debug.o(.constdata)
    xxxxromstr                               0x0000a2b1   Data           2  debug.o(.constdata)
    xxxxromstr                               0x0000a2b3   Data           2  debug.o(.constdata)
    xxxxromstr                               0x0000a2b5   Data           9  debug.o(.constdata)
    xxxxromstr                               0x0000a2be   Data           5  debug.o(.constdata)
    xxxxromstr                               0x0000a2c3   Data          12  debug.o(.constdata)
    xxxxromstr                               0x0000a2cf   Data           5  debug.o(.constdata)
    xxxxromstr                               0x0000a2d4   Data          12  debug.o(.constdata)
    xxxxromstr                               0x0000a2e0   Data          10  debug.o(.constdata)
    xxxxromstr                               0x0000a2ea   Data           5  debug.o(.constdata)
    xxxxromstr                               0x0000a2ef   Data          12  debug.o(.constdata)
    xxxxromstr                               0x0000a2fb   Data          12  debug.o(.constdata)
    xxxxromstr                               0x0000a307   Data          11  debug.o(.constdata)
    xxxxromstr                               0x0000a312   Data          14  debug.o(.constdata)
    xxxxromstr                               0x0000a320   Data          11  debug.o(.constdata)
    xxxxromstr                               0x0000a32b   Data           7  debug.o(.constdata)
    xxxxromstr                               0x0000a332   Data           2  debug.o(.constdata)
    xxxxromstr                               0x0000a334   Data           4  debug.o(.constdata)
    xxxxromstr                               0x0000a338   Data           4  debug.o(.constdata)
    xxxxromstr                               0x0000a33c   Data          22  debug.o(.constdata)
    xxxxromstr                               0x0000a352   Data           9  debug.o(.constdata)
    xxxxromstr                               0x0000a35b   Data           9  debug.o(.constdata)
    xxxxromstr                               0x0000a364   Data          11  debug.o(.constdata)
    xxxxromstr                               0x0000a36f   Data           7  debug.o(.constdata)
    xxxxromstr                               0x0000a376   Data          32  debug.o(.constdata)
    xxxxromstr                               0x0000a396   Data           9  debug.o(.constdata)
    xxxxromstr                               0x0000a39f   Data           9  debug.o(.constdata)
    .constdata                               0x0000a3a8   Section      264  os_core.o(.constdata)
    .constdata                               0x0000a4b0   Section       40  kitronix320x240x16_ssd2119_8bit.o(.constdata)
    .constdata                               0x0000a4d8   Section      132  set_pinout.o(.constdata)
    g_psEPIPinInfo                           0x0000a4fc   Data          96  set_pinout.o(.constdata)
    .constdata                               0x0000a55c   Section     3500  fontcm30.o(.constdata)
    g_pucCm30Data                            0x0000a55c   Data        3500  fontcm30.o(.constdata)
    .constdata                               0x0000b308   Section      200  fontcm30.o(.constdata)
    .constdata                               0x0000b3d0   Section     4844  fontcm40.o(.constdata)
    g_pucCm40Data                            0x0000b3d0   Data        4844  fontcm40.o(.constdata)
    .constdata                               0x0000c6bc   Section      200  fontcm40.o(.constdata)
    .constdata                               0x0000c784   Section      156  sysctl.o(.constdata)
    g_pulDCRegs                              0x0000c784   Data          16  sysctl.o(.constdata)
    g_pulSRCRRegs                            0x0000c794   Data          12  sysctl.o(.constdata)
    g_pulRCGCRegs                            0x0000c7a0   Data          12  sysctl.o(.constdata)
    g_pulSCGCRegs                            0x0000c7ac   Data          12  sysctl.o(.constdata)
    g_pulDCGCRegs                            0x0000c7b8   Data          12  sysctl.o(.constdata)
    g_pulXtals                               0x0000c7c4   Data          92  sysctl.o(.constdata)
    .constdata                               0x0000c820   Section      148  bigflt0.o(.constdata)
    tenpwrs_x                                0x0000c820   Data          60  bigflt0.o(.constdata)
    tenpwrs_i                                0x0000c85c   Data          64  bigflt0.o(.constdata)
    c$$dinf                                  0x0000c8d4   Section        8  fpconst.o(c$$dinf)
    locale$$data                             0x0000c8dc   Section      272  lc_ctype_c.o(locale$$data)
    __lcctype_c_name                         0x0000c8e0   Data           2  lc_ctype_c.o(locale$$data)
    __lcctype_c_start                        0x0000c8e8   Data           0  lc_ctype_c.o(locale$$data)
    locale$$data                             0x0000c9ec   Section       28  lc_numeric_c.o(locale$$data)
    __lcctype_c_end                          0x0000c9ec   Data           0  lc_ctype_c.o(locale$$data)
    __lcnum_c_name                           0x0000c9f0   Data           2  lc_numeric_c.o(locale$$data)
    __lcnum_c_start                          0x0000c9f8   Data           0  lc_numeric_c.o(locale$$data)
    __lcnum_c_point                          0x0000ca04   Data           0  lc_numeric_c.o(locale$$data)
    __lcnum_c_thousands                      0x0000ca06   Data           0  lc_numeric_c.o(locale$$data)
    __lcnum_c_grouping                       0x0000ca07   Data           0  lc_numeric_c.o(locale$$data)
    __lcnum_c_end                            0x0000ca08   Data           0  lc_numeric_c.o(locale$$data)
    .data                                    0x20000000   Section       18  evboard.o(.data)
    cnt                                      0x20000004   Data           4  evboard.o(.data)
    random_seed                              0x20000010   Data           2  evboard.o(.data)
    .data                                    0x20000014   Section       12  halstack.o(.data)
    local_radio_flags                        0x20000018   Data           4  halstack.o(.data)
    serio_rxHead                             0x2000001e   Data           1  halstack.o(.data)
    serio_rxTail                             0x2000001f   Data           1  halstack.o(.data)
    .data                                    0x20000020   Section       84  target.o(.data)
    .data                                    0x20000074   Section        9  aps.o(.data)
    apsRxState                               0x2000007b   Data           1  aps.o(.data)
    apsTxFSM_status                          0x2000007c   Data           1  aps.o(.data)
    .data                                    0x2000007d   Section        1  debug.o(.data)
    .data                                    0x20000080   Section       16  mac.o(.data)
    macRxState                               0x20000080   Data           1  mac.o(.data)
    mac_utility_timer                        0x2000008c   Data           4  mac.o(.data)
    .data                                    0x20000090   Section        3  nwk.o(.data)
    nwkRxState                               0x20000090   Data           1  nwk.o(.data)
    .data                                    0x20000093   Section        1  phy.o(.data)
    .data                                    0x20000094   Section       80  staticbind.o(.data)
    bind_table_index                         0x200000e0   Data           1  staticbind.o(.data)
    src_map_index                            0x200000e1   Data           1  staticbind.o(.data)
    bindSrcEP                                0x200000e2   Data           1  staticbind.o(.data)
    bindCluster                              0x200000e3   Data           1  staticbind.o(.data)
    .data                                    0x200000e4   Section       12  zep.o(.data)
    .data                                    0x200000f0   Section       36  os_core.o(.data)
    .data                                    0x20000114   Section        4  os_cpu_c.o(.data)
    .data                                    0x20000118   Section        8  kitronix320x240x16_ssd2119_8bit.o(.data)
    .data                                    0x20000120   Section        2  set_pinout.o(.data)
    .bss                                     0x20000124   Section      340  halneighbor.o(.bss)
    .bss                                     0x20000278   Section       32  halstack.o(.bss)
    serio_rxBuff                             0x20000278   Data          32  halstack.o(.bss)
    .bss                                     0x20000298   Section      364  target.o(.bss)
    .bss                                     0x20000404   Section      240  aps.o(.bss)
    .bss                                     0x200004f4   Section      144  mac.o(.bss)
    .bss                                     0x20000584   Section    10240  memalloc.o(.bss)
    .bss                                     0x20002d84   Section      136  neighbor.o(.bss)
    .bss                                     0x20002e0c   Section       96  nwk.o(.bss)
    .bss                                     0x20002e6c   Section      167  phy.o(.bss)
    .bss                                     0x20002f14   Section      332  os_core.o(.bss)
    .bss                                     0x20003060   Section     8392  main.o(.bss)
    GstkStart                                0x20003060   Data         200  main.o(.bss)
    GstkForm                                 0x20003128   Data        4096  main.o(.bss)
    DisPlay                                  0x20004128   Data        4096  main.o(.bss)
    .bss                                     0x20005128   Section       96  libspace.o(.bss)
    HEAP                                     0x20005188   Section      100  startup.o(HEAP)
    HeapMem                                  0x20005188   Data           0  startup.o(HEAP)
    STACK                                    0x200051f0   Section      256  startup.o(STACK)
    StackMem                                 0x200051f0   Data           0  startup.o(STACK)

    Global Symbols

    Symbol Name                              Value     Ov Type        Size  Object(Section)

    BuildAttributes$$THM_ISAv4$P$D$K$B$S$PE$A:L22UL41UL21$X:L11$S22US41US21$IEEE1$IW$USESV6$~STKCKD$USESV7$~SHL$OTIME$ROPI$IEEEX$EBA8$UX$STANDARDLIB$REQ8$PRES8$EABIv2 0x00000000   Number         0  anon$$obj.o ABSOLUTE
    __ARM_use_no_argv                        0x00000000   Number         0  main.o ABSOLUTE
    __Vectors                                0x00000000   Data           0  startup.o(RESET)
    __ARM_exceptions_init                     - Undefined Weak Reference
    __alloca_initialize                       - Undefined Weak Reference
    __cpp_initialize__aeabi_                  - Undefined Weak Reference
    __cxa_finalize                            - Undefined Weak Reference
    __sigvec_lookup                           - Undefined Weak Reference
    _atexit_init                              - Undefined Weak Reference
    _call_atexit_fns                          - Undefined Weak Reference
    _clock_init                               - Undefined Weak Reference
    _fp_trap_init                             - Undefined Weak Reference
    _fp_trap_shutdown                         - Undefined Weak Reference
    _get_lc_collate                           - Undefined Weak Reference
    _get_lc_monetary                          - Undefined Weak Reference
    _get_lc_time                              - Undefined Weak Reference
    _getenv_init                              - Undefined Weak Reference
    _handle_redirection                       - Undefined Weak Reference
    _init_alloc                               - Undefined Weak Reference
    _init_user_alloc                          - Undefined Weak Reference
    _initio                                   - Undefined Weak Reference
    _printf_post_padding                      - Undefined Weak Reference
    _printf_pre_padding                       - Undefined Weak Reference
    _printf_truncate_signed                   - Undefined Weak Reference
    _printf_truncate_unsigned                 - Undefined Weak Reference
    _rand_init                                - Undefined Weak Reference
    _signal_finish                            - Undefined Weak Reference
    _signal_init                              - Undefined Weak Reference
    _terminate_alloc                          - Undefined Weak Reference
    _terminate_user_alloc                     - Undefined Weak Reference
    _terminateio                              - Undefined Weak Reference
    Reset_Handler                            0x0000011d   Thumb Code     0  startup.o(RESET)
    __main                                   0x0000012d   Thumb Code     8  __main.o(!!!main)
    __scatterload                            0x00000135   Thumb Code     0  __scatter.o(!!!scatter)
    __scatterload_rt2                        0x00000135   Thumb Code    44  __scatter.o(!!!scatter)
    __scatterload_rt2_thumb_only             0x00000135   Thumb Code     0  __scatter.o(!!!scatter)
    __scatterload_null                       0x00000143   Thumb Code     0  __scatter.o(!!!scatter)
    __scatterload_copy                       0x00000169   Thumb Code    26  __scatter_copy.o(!!handler_copy)
    __scatterload_zeroinit                   0x00000185   Thumb Code    28  __scatter_zi.o(!!handler_zi)
    _printf_d                                0x000001a1   Thumb Code     0  _printf_d.o(.ARM.Collect$$_printf_percent$$00000009)
    _printf_percent                          0x000001a1   Thumb Code     0  _printf_percent.o(.ARM.Collect$$_printf_percent$$00000000)
    _printf_percent_end                      0x000001a7   Thumb Code     0  _printf_percent_end.o(.ARM.Collect$$_printf_percent$$00000017)
    __rt_lib_init                            0x000001ab   Thumb Code     0  libinit.o(.ARM.Collect$$libinit$$00000000)
    __rt_lib_init_fp_1                       0x000001ad   Thumb Code     0  libinit2.o(.ARM.Collect$$libinit$$00000002)
    __rt_lib_init_heap_1                     0x000001ad   Thumb Code     0  libinit2.o(.ARM.Collect$$libinit$$00000008)
    __rt_lib_init_lc_common                  0x000001ad   Thumb Code     0  libinit2.o(.ARM.Collect$$libinit$$0000000D)
    __rt_lib_init_rand_1                     0x000001ad   Thumb Code     0  libinit2.o(.ARM.Collect$$libinit$$0000000C)
    __rt_lib_init_user_alloc_1               0x000001ad   Thumb Code     0  libinit2.o(.ARM.Collect$$libinit$$0000000A)
    __rt_lib_init_lc_collate_1               0x000001b3   Thumb Code     0  libinit2.o(.ARM.Collect$$libinit$$0000000F)
    __rt_lib_init_lc_ctype_2                 0x000001b3   Thumb Code     0  libinit2.o(.ARM.Collect$$libinit$$00000010)
    __rt_lib_init_lc_ctype_1                 0x000001bf   Thumb Code     0  libinit2.o(.ARM.Collect$$libinit$$00000011)
    __rt_lib_init_lc_monetary_1              0x000001bf   Thumb Code     0  libinit2.o(.ARM.Collect$$libinit$$00000013)
    __rt_lib_init_lc_numeric_2               0x000001bf   Thumb Code     0  libinit2.o(.ARM.Collect$$libinit$$00000014)
    __rt_lib_init_alloca_1                   0x000001c9   Thumb Code     0  libinit2.o(.ARM.Collect$$libinit$$0000002C)
    __rt_lib_init_argv_1                     0x000001c9   Thumb Code     0  libinit2.o(.ARM.Collect$$libinit$$0000002A)
    __rt_lib_init_atexit_1                   0x000001c9   Thumb Code     0  libinit2.o(.ARM.Collect$$libinit$$00000019)
    __rt_lib_init_clock_1                    0x000001c9   Thumb Code     0  libinit2.o(.ARM.Collect$$libinit$$0000001F)
    __rt_lib_init_cpp_1                      0x000001c9   Thumb Code     0  libinit2.o(.ARM.Collect$$libinit$$00000030)
    __rt_lib_init_exceptions_1               0x000001c9   Thumb Code     0  libinit2.o(.ARM.Collect$$libinit$$0000002E)
    __rt_lib_init_fp_trap_1                  0x000001c9   Thumb Code     0  libinit2.o(.ARM.Collect$$libinit$$0000001D)
    __rt_lib_init_getenv_1                   0x000001c9   Thumb Code     0  libinit2.o(.ARM.Collect$$libinit$$00000021)
    __rt_lib_init_lc_numeric_1               0x000001c9   Thumb Code     0  libinit2.o(.ARM.Collect$$libinit$$00000015)
    __rt_lib_init_lc_time_1                  0x000001c9   Thumb Code     0  libinit2.o(.ARM.Collect$$libinit$$00000017)
    __rt_lib_init_return                     0x000001c9   Thumb Code     0  libinit2.o(.ARM.Collect$$libinit$$00000031)
    __rt_lib_init_signal_1                   0x000001c9   Thumb Code     0  libinit2.o(.ARM.Collect$$libinit$$0000001B)
    __rt_lib_init_stdio_1                    0x000001c9   Thumb Code     0  libinit2.o(.ARM.Collect$$libinit$$00000023)
    __rt_lib_shutdown                        0x000001cb   Thumb Code     0  libshutdown.o(.ARM.Collect$$libshutdown$$00000000)
    __rt_lib_shutdown_fp_trap_1              0x000001cd   Thumb Code     0  libshutdown2.o(.ARM.Collect$$libshutdown$$00000006)
    __rt_lib_shutdown_heap_1                 0x000001cd   Thumb Code     0  libshutdown2.o(.ARM.Collect$$libshutdown$$0000000E)
    __rt_lib_shutdown_return                 0x000001cd   Thumb Code     0  libshutdown2.o(.ARM.Collect$$libshutdown$$0000000F)
    __rt_lib_shutdown_signal_1               0x000001cd   Thumb Code     0  libshutdown2.o(.ARM.Collect$$libshutdown$$00000009)
    __rt_lib_shutdown_stdio_1                0x000001cd   Thumb Code     0  libshutdown2.o(.ARM.Collect$$libshutdown$$00000003)
    __rt_lib_shutdown_user_alloc_1           0x000001cd   Thumb Code     0  libshutdown2.o(.ARM.Collect$$libshutdown$$0000000B)
    __rt_entry                               0x000001cf   Thumb Code     0  rtentry.o(.ARM.Collect$$rtentry$$00000000)
    __rt_entry_presh_1                       0x000001cf   Thumb Code     0  rtentry2.o(.ARM.Collect$$rtentry$$00000002)
    __rt_entry_sh                            0x000001cf   Thumb Code     0  rtentry4.o(.ARM.Collect$$rtentry$$00000004)
    __rt_entry_li                            0x000001d5   Thumb Code     0  rtentry2.o(.ARM.Collect$$rtentry$$0000000A)
    __rt_entry_postsh_1                      0x000001d5   Thumb Code     0  rtentry2.o(.ARM.Collect$$rtentry$$00000009)
    __rt_entry_main                          0x000001d9   Thumb Code     0  rtentry2.o(.ARM.Collect$$rtentry$$0000000D)
    __rt_entry_postli_1                      0x000001d9   Thumb Code     0  rtentry2.o(.ARM.Collect$$rtentry$$0000000C)
    __rt_exit                                0x000001e1   Thumb Code     0  rtexit.o(.ARM.Collect$$rtexit$$00000000)
    __rt_exit_ls                             0x000001e3   Thumb Code     0  rtexit2.o(.ARM.Collect$$rtexit$$00000003)
    __rt_exit_prels_1                        0x000001e3   Thumb Code     0  rtexit2.o(.ARM.Collect$$rtexit$$00000002)
    __rt_exit_exit                           0x000001e7   Thumb Code     0  rtexit2.o(.ARM.Collect$$rtexit$$00000004)
    SysCtlDelay                              0x000001ed   Thumb Code     6  sysctl.o(.emb_text)
    CPUcpsid                                 0x000001f5   Thumb Code     8  cpu.o(.emb_text)
    CPUprimask                               0x000001fd   Thumb Code     6  cpu.o(.emb_text)
    CPUcpsie                                 0x00000203   Thumb Code     8  cpu.o(.emb_text)
    CPUwfi                                   0x0000020b   Thumb Code     4  cpu.o(.emb_text)
    CPUbasepriSet                            0x0000020f   Thumb Code     6  cpu.o(.emb_text)
    CPUbasepriGet                            0x00000215   Thumb Code     6  cpu.o(.emb_text)
    ssiInit                                  0x0000021d   Thumb Code   178  evboard.o(.text)
    GPIOJ_IntInit                            0x000002cf   Thumb Code    28  evboard.o(.text)
    evbRadioIntCallback                      0x000002eb   Thumb Code   364  evboard.o(.text)
    GPIO_Port_J_ISR                          0x00000457   Thumb Code    30  evboard.o(.text)
    SW_Init                                  0x00000475   Thumb Code    36  evboard.o(.text)
    LED_Init                                 0x00000499   Thumb Code    36  evboard.o(.text)
    evbInitRandomSeed                        0x000004bd   Thumb Code    98  evboard.o(.text)
    evbIntCallback                           0x0000051f   Thumb Code   160  evboard.o(.text)
    evbPoll                                  0x000005bf   Thumb Code     2  evboard.o(.text)
    evbInit                                  0x000005c1   Thumb Code    62  evboard.o(.text)
    evbLedSet                                0x000005ff   Thumb Code   114  evboard.o(.text)
    evbLedGet                                0x00000671   Thumb Code    42  evboard.o(.text)
    halGetRandomByte                         0x0000069b   Thumb Code    90  evboard.o(.text)
    halSetRadioPANID                         0x000006f5   Thumb Code    42  evboard.o(.text)
    halSetRadioShortAddr                     0x0000071f   Thumb Code    42  evboard.o(.text)
    halSetRadioIEEEAddress                   0x00000749   Thumb Code    30  evboard.o(.text)
    halRfWaitForCrystalOscillator            0x00000767   Thumb Code     2  evboard.o(.text)
    halDisableRadio                          0x00000769   Thumb Code    36  evboard.o(.text)
    halSetChannel                            0x0000078d   Thumb Code    48  evboard.o(.text)
    halInitRadio                             0x000007bd   Thumb Code   288  evboard.o(.text)
    halResetRadio                            0x000008dd   Thumb Code    50  evboard.o(.text)
    halFlushRXFIFO                           0x0000090f   Thumb Code    24  evboard.o(.text)
    doIEEE_backoff                           0x00000927   Thumb Code   112  evboard.o(.text)
    halSendPacket                            0x00000997   Thumb Code   518  evboard.o(.text)
    wait                                     0x00000ba9   Thumb Code    20  evbradio.o(.text)
    Write_Command                            0x00000bbd   Thumb Code    44  evbradio.o(.text)
    Read_Status                              0x00000be9   Thumb Code    54  evbradio.o(.text)
    Write_ConfigureWord                      0x00000c1f   Thumb Code    64  evbradio.o(.text)
    Read_Byte_RXFIFO                         0x00000c5f   Thumb Code    44  evbradio.o(.text)
    Read_RXFIFO                              0x00000c8b   Thumb Code   130  evbradio.o(.text)
    Write_TXFIFO                             0x00000d0d   Thumb Code    88  evbradio.o(.text)
    Write_RAM                                0x00000d65   Thumb Code   126  evbradio.o(.text)
    timer2Init                               0x00000ded   Thumb Code    70  halstack.o(.text)
    timer0Init                               0x00000e33   Thumb Code    62  halstack.o(.text)
    halInitMACTimer                          0x00000e71   Thumb Code    28  halstack.o(.text)
    halInitUart                              0x00000e8d   Thumb Code   122  halstack.o(.text)
    halInit                                  0x00000f07   Thumb Code    22  halstack.o(.text)
    halGetch                                 0x00000f1d   Thumb Code    46  halstack.o(.text)
    halGetchRdy                              0x00000f4b   Thumb Code    20  halstack.o(.text)
    halPutch                                 0x00000f5f   Thumb Code    14  halstack.o(.text)
    halRawPut                                0x00000f6d   Thumb Code    26  halstack.o(.text)
    UART0_ISR                                0x00000f87   Thumb Code   138  halstack.o(.text)
    halShutdown                              0x00001011   Thumb Code    28  halstack.o(.text)
    halWarmstart                             0x0000102d   Thumb Code    24  halstack.o(.text)
    halMacTicksToUs                          0x00001045   Thumb Code     6  halstack.o(.text)
    halGetMACTimer                           0x0000104b   Thumb Code    54  halstack.o(.text)
    halMACTimerNowDelta                      0x00001081   Thumb Code    20  halstack.o(.text)
    halUtilMemCopy                           0x00001095   Thumb Code    20  halstack.o(.text)
    halGetProcessorIEEEAddress               0x000010a9   Thumb Code    26  halstack.o(.text)
    halWaitMs                                0x000010c3   Thumb Code    38  halstack.o(.text)
    halIdle                                  0x000010e9   Thumb Code     2  halstack.o(.text)
    halSleep                                 0x000010eb   Thumb Code    42  halstack.o(.text)
    Timer0B_ISR                              0x00001115   Thumb Code    24  halstack.o(.text)
    Timer2B_ISR                              0x0000112d   Thumb Code    22  halstack.o(.text)
    __user_initial_stackheap                 0x0000117d   Thumb Code     0  startup.o(.text)
    BOOLToggle                               0x00001199   Thumb Code    14  target.o(.text)
    LCD_Init                                 0x000011a7   Thumb Code   544  target.o(.text)
    lcd                                      0x000013c7   Thumb Code   238  target.o(.text)
    SendToUP210                              0x000014b5   Thumb Code   172  target.o(.text)
    string                                   0x00001561   Thumb Code   136  target.o(.text)
    string1                                  0x000015e9   Thumb Code    52  target.o(.text)
    string2                                  0x0000161d   Thumb Code    62  target.o(.text)
    string3                                  0x0000165b   Thumb Code    52  target.o(.text)
    lockt                                    0x0000168f   Thumb Code    82  target.o(.text)
    JTAG_Wait                                0x000016e1   Thumb Code    38  target.o(.text)
    targetInit                               0x00001725   Thumb Code    88  target.o(.text)
    usrZepRxCallback                         0x0000177d   Thumb Code    18  target.o(.text)
    datajudge                                0x0000178f   Thumb Code   430  target.o(.text)
    AnalysisPacket                           0x0000193d   Thumb Code   496  target.o(.text)
    usrRxPacketCallback                      0x00001b2d   Thumb Code    76  target.o(.text)
    usrJoinVerifyCallback                    0x00001b79   Thumb Code     6  target.o(.text)
    usrJoinNotifyCallback                    0x00001b7f   Thumb Code    12  target.o(.text)
    usrSlowTimerInt                          0x00001b8b   Thumb Code     2  target.o(.text)
    usrIntCallback                           0x00001b8d   Thumb Code     2  target.o(.text)
    tickISRHandler                           0x00001b8f   Thumb Code    30  target.o(.text)
    aplMacTicksToUs                          0x00001bc5   Thumb Code    12  aps.o(.text)
    apsRxBuffAdd                             0x00001bd1   Thumb Code    72  aps.o(.text)
    apsRxBuffFull                            0x00001c19   Thumb Code    16  aps.o(.text)
    apsTxData                                0x00001f6d   Thumb Code   670  aps.o(.text)
    apsRxBusy                                0x0000220b   Thumb Code    14  aps.o(.text)
    apsFreeRxPacket                          0x00002219   Thumb Code    68  aps.o(.text)
    apsFSM                                   0x000024cf   Thumb Code   972  aps.o(.text)
    aplShutdown                              0x0000289b   Thumb Code    32  aps.o(.text)
    aplWarmstart                             0x000028bb   Thumb Code    12  aps.o(.text)
    apsInit                                  0x000028c7   Thumb Code    62  aps.o(.text)
    aplRegisterEndPoint                      0x00002905   Thumb Code    40  aps.o(.text)
    aplFmtSendMSG                            0x0000292d   Thumb Code   212  aps.o(.text)
    apsRxHandoff                             0x00002a01   Thumb Code    52  aps.o(.text)
    apsRxBuffInit                            0x00002a35   Thumb Code    12  aps.o(.text)
    apsRxBuffEmpty                           0x00002a41   Thumb Code    14  aps.o(.text)
    apsGetRxPacket                           0x00002a4f   Thumb Code    18  aps.o(.text)
    conPrintROMString_func                   0x00002a91   Thumb Code    34  console.o(.text)
    conPCRLF                                 0x00002ab3   Thumb Code    10  console.o(.text)
    conPrintString                           0x00002abd   Thumb Code    34  console.o(.text)
    conPrintChar                             0x00002adf   Thumb Code    12  console.o(.text)
    conPrintUINT8_noleader                   0x00002aeb   Thumb Code    64  console.o(.text)
    conPrintUINT8                            0x00002b2b   Thumb Code    18  console.o(.text)
    conPrintUINT16                           0x00002b3d   Thumb Code    28  console.o(.text)
    conPrintUINT32                           0x00002b59   Thumb Code    48  console.o(.text)
    conPrintLADDR_bytes                      0x00002b89   Thumb Code    34  console.o(.text)
    conPrintLADDR                            0x00002bab   Thumb Code    14  console.o(.text)
    conPrintConfig                           0x00002bb9   Thumb Code    82  console.o(.text)
    dbgPrintMacPacketFCS                     0x00002c39   Thumb Code    38  debug.o(.text)
    dbgPrintAfPacket                         0x00002c5f   Thumb Code   158  debug.o(.text)
    dbgPrintApsPacket                        0x00002cfd   Thumb Code   372  debug.o(.text)
    dbgPrintNwkPacket                        0x00002e71   Thumb Code   264  debug.o(.text)
    dbgPrintMacPacket                        0x00003211   Thumb Code  1106  debug.o(.text)
    dbgPrintPacket                           0x00003663   Thumb Code    54  debug.o(.text)
    dbgPrintNeighborTable                    0x00003699   Thumb Code   298  debug.o(.text)
    macInit                                  0x000037ed   Thumb Code    98  mac.o(.text)
    macWarmStartRadio                        0x0000384f   Thumb Code    78  mac.o(.text)
    macSetPANID                              0x0000389d   Thumb Code    18  mac.o(.text)
    macInitRadio                             0x000038af   Thumb Code    98  mac.o(.text)
    macGetPANID                              0x00003911   Thumb Code     6  mac.o(.text)
    macSetChannel                            0x00003917   Thumb Code    16  mac.o(.text)
    macSetShortAddr                          0x00003927   Thumb Code    18  mac.o(.text)
    macFreeRxPacket                          0x00003e3d   Thumb Code    54  mac.o(.text)
    macGetRxPacket                           0x000040c1   Thumb Code    46  mac.o(.text)
    macRxBuffEmpty                           0x000040ef   Thumb Code    24  mac.o(.text)
    macFSM                                   0x00004303   Thumb Code  1384  mac.o(.text)
    macTxCallback                            0x0000486b   Thumb Code    38  mac.o(.text)
    macRxCallback                            0x00004891   Thumb Code   110  mac.o(.text)
    macRxBuffFull                            0x000048ff   Thumb Code    34  mac.o(.text)
    memhdr_get_size                          0x00004929   Thumb Code    18  memalloc.o(.text)
    memhdr_set_size                          0x0000493b   Thumb Code    22  memalloc.o(.text)
    MemInit                                  0x00004951   Thumb Code    36  memalloc.o(.text)
    MemAlloc                                 0x00004975   Thumb Code   166  memalloc.o(.text)
    MemFree                                  0x00004a1b   Thumb Code   140  memalloc.o(.text)
    MemDump                                  0x00004aa7   Thumb Code     2  memalloc.o(.text)
    ntInitAddressMap                         0x00004aad   Thumb Code    28  neighbor.o(.text)
    ntFindAddressByLADDR                     0x00004ac9   Thumb Code   104  neighbor.o(.text)
    ntCheckAddressMapEntry                   0x00004b31   Thumb Code   124  neighbor.o(.text)
    ntNewAddressMapEntry                     0x00004bad   Thumb Code   140  neighbor.o(.text)
    ntAddOurselvesToAddressTable             0x00004c39   Thumb Code    20  neighbor.o(.text)
    ntFindAddressBySADDR                     0x00004c4d   Thumb Code    72  neighbor.o(.text)
    ntGetCskip                               0x00004c95   Thumb Code    70  neighbor.o(.text)
    ntGetMaxSADDR                            0x00004cdb   Thumb Code    22  neighbor.o(.text)
    ntFindBySADDR                            0x00004cf1   Thumb Code    52  neighbor.o(.text)
    ntFindByLADDR                            0x00004d25   Thumb Code    82  neighbor.o(.text)
    ntInitTable                              0x00004d77   Thumb Code    28  neighbor.o(.text)
    ntInitAddressAssignment                  0x00004d93   Thumb Code    52  neighbor.o(.text)
    ntAddNeighbor                            0x00004dc7   Thumb Code   280  neighbor.o(.text)
    ntFindNewDst                             0x00004edf   Thumb Code   154  neighbor.o(.text)
    nwkInit                                  0x00004f85   Thumb Code    26  nwk.o(.text)
    nwkTxData                                0x00004f9f   Thumb Code   396  nwk.o(.text)
    nwkCopyFwdPkt                            0x0000517f   Thumb Code   124  nwk.o(.text)
    nwkFSM                                   0x00005357   Thumb Code   410  nwk.o(.text)
    nwkRxBusy                                0x000054f1   Thumb Code    14  nwk.o(.text)
    nwkRxHandoff                             0x000054ff   Thumb Code    32  nwk.o(.text)
    nwkFindParentSADDR                       0x0000551f   Thumb Code   106  nwk.o(.text)
    nwkGetHopsToDest                         0x00005589   Thumb Code   270  nwk.o(.text)
    phyInit                                  0x000056c5   Thumb Code    18  phy.o(.text)
    phyRxCallback                            0x000056d7   Thumb Code     2  phy.o(.text)
    phyTxStartCallBack                       0x000056d9   Thumb Code    12  phy.o(.text)
    phyTxEndCallBack                         0x000056e5   Thumb Code    16  phy.o(.text)
    phyFSM                                   0x000056f5   Thumb Code   174  phy.o(.text)
    evbBindTableIterInit                     0x000057b1   Thumb Code    32  staticbind.o(.text)
    evbResolveBind                           0x000057d1   Thumb Code   168  staticbind.o(.text)
    zepInit                                  0x00005891   Thumb Code    12  zep.o(.text)
    zepFSM                                   0x0000589d   Thumb Code    64  zep.o(.text)
    zepHandleRxPacket                        0x0000590b   Thumb Code   142  zep.o(.text)
    zepFmtPing                               0x000059e5   Thumb Code    46  zep.o(.text)
    zepFmtAlarm                              0x00005a13   Thumb Code    34  zep.o(.text)
    zepFmtEndDeviceAnnounce                  0x00005a35   Thumb Code    50  zep.o(.text)
    zepFmtNodeInfoRsp                        0x00005a67   Thumb Code   126  zep.o(.text)
    OSTaskCreate                             0x00005b09   Thumb Code   138  os_task.o(.text)
    OSTaskResume                             0x00005b93   Thumb Code   100  os_task.o(.text)
    OSTaskSuspend                            0x00005bf7   Thumb Code   108  os_task.o(.text)
    OS_TaskIdle                              0x00005c7d   Thumb Code    28  os_core.o(.text)
    OSInit                                   0x00005d37   Thumb Code    32  os_core.o(.text)
    OSIntEnter                               0x00005d57   Thumb Code    28  os_core.o(.text)
    OSIntExit                                0x00005d73   Thumb Code   124  os_core.o(.text)
    OSSchedLock                              0x00005def   Thumb Code    38  os_core.o(.text)
    OS_Sched                                 0x00005e15   Thumb Code    88  os_core.o(.text)
    OSSchedUnlock                            0x00005e6d   Thumb Code    66  os_core.o(.text)
    OSStart                                  0x00005eaf   Thumb Code    68  os_core.o(.text)
    OSTimeTick                               0x00005ef3   Thumb Code    96  os_core.o(.text)
    OSVersion                                0x00005f53   Thumb Code     4  os_core.o(.text)
    OS_TCBInit                               0x00005f57   Thumb Code   180  os_core.o(.text)
    OSInitHookBegin                          0x0000605d   Thumb Code     2  os_cpu_c.o(.text)
    OSInitHookEnd                            0x0000605f   Thumb Code     2  os_cpu_c.o(.text)
    OSTaskCreateHook                         0x00006061   Thumb Code     2  os_cpu_c.o(.text)
    OSTaskDelHook                            0x00006063   Thumb Code     2  os_cpu_c.o(.text)
    OSTaskIdleHook                           0x00006065   Thumb Code     2  os_cpu_c.o(.text)
    OSTaskStatHook                           0x00006067   Thumb Code     2  os_cpu_c.o(.text)
    OSTaskStkInit                            0x00006069   Thumb Code   154  os_cpu_c.o(.text)
    OSTaskSwHook                             0x00006103   Thumb Code     2  os_cpu_c.o(.text)
    OSTCBInitHook                            0x00006105   Thumb Code     2  os_cpu_c.o(.text)
    OSTimeTickHook                           0x00006107   Thumb Code     2  os_cpu_c.o(.text)
    Kitronix320x240x16_SSD2119Init           0x00006323   Thumb Code   656  kitronix320x240x16_ssd2119_8bit.o(.text)
    PinoutSet                                0x00006de7   Thumb Code   174  set_pinout.o(.text)
    main                                     0x00006f5d   Thumb Code    30  main.o(.text)
    isprint                                  0x00006fa1   Thumb Code    18  isprint.o(.text)
    __2sprintf                               0x00006fb5   Thumb Code    34  noretval__2sprintf.o(.text)
    __printf                                 0x00006fdd   Thumb Code   104  __printf.o(.text)
    _printf_int_dec                          0x00007045   Thumb Code   102  _printf_dec.o(.text)
    strcpy                                   0x000070bd   Thumb Code    72  strcpy.o(.text)
    strncmp                                  0x00007105   Thumb Code   150  strncmp.o(.text)
    __aeabi_memcpy                           0x0000719b   Thumb Code     0  rt_memcpy_v6.o(.text)
    __rt_memcpy                              0x0000719b   Thumb Code   138  rt_memcpy_v6.o(.text)
    _memcpy_lastbytes                        0x00007201   Thumb Code     0  rt_memcpy_v6.o(.text)
    __aeabi_memclr                           0x00007225   Thumb Code     0  rt_memclr.o(.text)
    __rt_memclr                              0x00007225   Thumb Code    68  rt_memclr.o(.text)
    _memset                                  0x00007229   Thumb Code     0  rt_memclr.o(.text)
    __aeabi_memclr4                          0x00007269   Thumb Code     0  rt_memclr_w.o(.text)
    __aeabi_memclr8                          0x00007269   Thumb Code     0  rt_memclr_w.o(.text)
    __rt_memclr_w                            0x00007269   Thumb Code    78  rt_memclr_w.o(.text)
    _memset_w                                0x0000726d   Thumb Code     0  rt_memclr_w.o(.text)
    __use_two_region_memory                  0x000072b7   Thumb Code     2  heapauxi.o(.text)
    __rt_heap_escrow$2region                 0x000072b9   Thumb Code     2  heapauxi.o(.text)
    __rt_heap_expand$2region                 0x000072bb   Thumb Code     2  heapauxi.o(.text)
    __rt_ctype_table                         0x000072bd   Thumb Code    16  rt_ctype_table.o(.text)
    __read_errno                             0x000072cd   Thumb Code    10  _rserrno.o(.text)
    __set_errno                              0x000072d7   Thumb Code    12  _rserrno.o(.text)
    _printf_int_common                       0x000072e3   Thumb Code   184  _printf_intcommon.o(.text)
    _printf_char_common                      0x000073a7   Thumb Code    32  _printf_char_common.o(.text)
    _sputc                                   0x000073cd   Thumb Code    10  _sputc.o(.text)
    __strtod_int                             0x00007415   Thumb Code    88  strtod.o(.text)
    __aeabi_memcpy4                          0x00007479   Thumb Code     0  rt_memcpy_w.o(.text)
    __aeabi_memcpy8                          0x00007479   Thumb Code     0  rt_memcpy_w.o(.text)
    __rt_memcpy_w                            0x00007479   Thumb Code   100  rt_memcpy_w.o(.text)
    _memcpy_lastbytes_aligned                0x000074c1   Thumb Code     0  rt_memcpy_w.o(.text)
    __rt_locale                              0x000074dd   Thumb Code     8  rt_locale_intlibspace.o(.text)
    __aeabi_errno_addr                       0x000074e5   Thumb Code     8  rt_errno_addr_intlibspace.o(.text)
    __errno$intlibspace                      0x000074e5   Thumb Code     0  rt_errno_addr_intlibspace.o(.text)
    __rt_errno_addr$intlibspace              0x000074e5   Thumb Code     0  rt_errno_addr_intlibspace.o(.text)
    isspace                                  0x000074ed   Thumb Code    18  isspace.o(.text)
    _sgetc                                   0x000074ff   Thumb Code    30  _sgetc.o(.text)
    _sbackspace                              0x0000751d   Thumb Code    34  _sgetc.o(.text)
    __user_libspace                          0x00007541   Thumb Code     8  libspace.o(.text)
    __user_perproc_libspace                  0x00007541   Thumb Code     0  libspace.o(.text)
    __user_perthread_libspace                0x00007541   Thumb Code     0  libspace.o(.text)
    __user_setup_stackheap                   0x00007549   Thumb Code    74  sys_stackheap_outer.o(.text)
    _scanf_really_real                       0x0000778d   Thumb Code   672  scanf_fp.o(.text)
    exit                                     0x00007a39   Thumb Code    12  exit.o(.text)
    strcmp                                   0x00007a45   Thumb Code   128  strcmpv7m.o(.text)
    _btod_etento                             0x00007ac5   Thumb Code   222  bigflt0.o(.text)
    _scanf_really_hex_real                   0x00007ba9   Thumb Code   776  scanf_hexfp.o(.text)
    _scanf_really_infnan                     0x00007ebd   Thumb Code   298  scanf_infnan.o(.text)
    _sys_exit                                0x00007ff9   Thumb Code     8  sys_exit.o(.text)
    __aeabi_llsl                             0x00008005   Thumb Code     0  llshl.o(.text)
    _ll_shift_l                              0x00008005   Thumb Code    38  llshl.o(.text)
    _chval                                   0x0000802b   Thumb Code    28  _chval.o(.text)
    __I$use$semihosting                      0x00008047   Thumb Code     0  use_no_semi.o(.text)
    __use_no_semihosting_swi                 0x00008047   Thumb Code     2  use_no_semi.o(.text)
    __btod_div_common                        0x00008049   Thumb Code   696  btod.o(CL$$btod_div_common)
    __semihosting_library_function           0x00008049   Thumb Code     0  indicate_semi.o(.text)
    _e2d                                     0x00008381   Thumb Code    80  btod.o(CL$$btod_e2d)
    _e2e                                     0x000083d5   Thumb Code   198  btod.o(CL$$btod_e2e)
    _btod_ediv                               0x0000849b   Thumb Code    40  btod.o(CL$$btod_ediv)
    _btod_edivd                              0x000084c3   Thumb Code    40  btod.o(CL$$btod_edivd)
    _btod_emul                               0x000084eb   Thumb Code    40  btod.o(CL$$btod_emul)
    _btod_emuld                              0x00008513   Thumb Code    40  btod.o(CL$$btod_emuld)
    __btod_mult_common                       0x0000853b   Thumb Code   580  btod.o(CL$$btod_mult_common)
    OS_ENTER_CRITICAL                        0x00008781   Thumb Code     0  os_cpu_a.o(UCOSII_ASM)
    OS_EXIT_CRITICAL                         0x00008793   Thumb Code     0  os_cpu_a.o(UCOSII_ASM)
    OSStartHighRdy                           0x000087ad   Thumb Code     0  os_cpu_a.o(UCOSII_ASM)
    OSCtxSw                                  0x000087cf   Thumb Code     0  os_cpu_a.o(UCOSII_ASM)
    OSIntCtxSw                               0x000087dd   Thumb Code     0  os_cpu_a.o(UCOSII_ASM)
    OSPendSV                                 0x000087ed   Thumb Code     0  os_cpu_a.o(UCOSII_ASM)
    intDisAll                                0x0000883b   Thumb Code     0  os_cpu_a.o(UCOSII_ASM)
    EPIAddressMapSet                         0x00008869   Thumb Code     4  epi.o(i.EPIAddressMapSet)
    EPIConfigGPModeSet                       0x0000886d   Thumb Code    34  epi.o(i.EPIConfigGPModeSet)
    EPIConfigHB8Set                          0x0000888f   Thumb Code    46  epi.o(i.EPIConfigHB8Set)
    EPIConfigSDRAMSet                        0x000088bd   Thumb Code    12  epi.o(i.EPIConfigSDRAMSet)
    EPIDividerSet                            0x000088c9   Thumb Code     4  epi.o(i.EPIDividerSet)
    EPIModeSet                               0x000088cd   Thumb Code     4  epi.o(i.EPIModeSet)
    GPIODirModeSet                           0x000088d1   Thumb Code    40  gpio.o(i.GPIODirModeSet)
    GPIOIntTypeSet                           0x000088f9   Thumb Code    58  gpio.o(i.GPIOIntTypeSet)
    GPIOPadConfigSet                         0x00008933   Thumb Code   176  gpio.o(i.GPIOPadConfigSet)
    GPIOPinIntClear                          0x000089e3   Thumb Code     6  gpio.o(i.GPIOPinIntClear)
    GPIOPinIntEnable                         0x000089e9   Thumb Code    12  gpio.o(i.GPIOPinIntEnable)
    GPIOPinIntStatus                         0x000089f5   Thumb Code    14  gpio.o(i.GPIOPinIntStatus)
    GPIOPinRead                              0x00008a03   Thumb Code     6  gpio.o(i.GPIOPinRead)
    GPIOPinTypeGPIOInput                     0x00008a09   Thumb Code    28  gpio.o(i.GPIOPinTypeGPIOInput)
    GPIOPinTypeGPIOOutput                    0x00008a25   Thumb Code    28  gpio.o(i.GPIOPinTypeGPIOOutput)
    GPIOPinTypeI2C                           0x00008a41   Thumb Code    28  gpio.o(i.GPIOPinTypeI2C)
    GPIOPinTypeSSI                           0x00008a5d   Thumb Code    28  gpio.o(i.GPIOPinTypeSSI)
    GPIOPinTypeUART                          0x00008a79   Thumb Code    28  gpio.o(i.GPIOPinTypeUART)
    GPIOPinWrite                             0x00008a95   Thumb Code     6  gpio.o(i.GPIOPinWrite)
    GrContextInit                            0x00008a9b   Thumb Code    32  context.o(i.GrContextInit)
    GrLineDrawH                              0x00008abb   Thumb Code    88  line.o(i.GrLineDrawH)
    GrLineDrawV                              0x00008b13   Thumb Code    82  line.o(i.GrLineDrawV)
    GrRectDraw                               0x00008b65   Thumb Code   108  rectangle.o(i.GrRectDraw)
    GrRectFill                               0x00008bd1   Thumb Code   180  rectangle.o(i.GrRectFill)
    GrStringDraw                             0x00008c85   Thumb Code   678  string.o(i.GrStringDraw)
    GrStringWidthGet                         0x00008f2b   Thumb Code    66  string.o(i.GrStringWidthGet)
    I2CMasterControl                         0x00008f6d   Thumb Code     4  i2c.o(i.I2CMasterControl)
    I2CMasterDataGet                         0x00008f71   Thumb Code     4  i2c.o(i.I2CMasterDataGet)
    I2CMasterDataPut                         0x00008f75   Thumb Code     4  i2c.o(i.I2CMasterDataPut)
    I2CMasterEnable                          0x00008f79   Thumb Code    10  i2c.o(i.I2CMasterEnable)
    I2CMasterErr                             0x00008f83   Thumb Code    24  i2c.o(i.I2CMasterErr)
    I2CMasterInitExpClk                      0x00008f9d   Thumb Code    42  i2c.o(i.I2CMasterInitExpClk)
    I2CMasterIntClear                        0x00008fd1   Thumb Code     8  i2c.o(i.I2CMasterIntClear)
    I2CMasterIntStatus                       0x00008fd9   Thumb Code    24  i2c.o(i.I2CMasterIntStatus)
    I2CMasterSlaveAddrSet                    0x00008ff1   Thumb Code     8  i2c.o(i.I2CMasterSlaveAddrSet)
    IntDisable                               0x00008ff9   Thumb Code   104  interrupt.o(i.IntDisable)
    IntEnable                                0x00009061   Thumb Code   104  interrupt.o(i.IntEnable)
    IntMasterDisable                         0x000090c9   Thumb Code    10  interrupt.o(i.IntMasterDisable)
    IntMasterEnable                          0x000090d3   Thumb Code    10  interrupt.o(i.IntMasterEnable)
    SSIConfigSetExpClk                       0x000090dd   Thumb Code    76  ssi.o(i.SSIConfigSetExpClk)
    SSIDataGet                               0x00009129   Thumb Code    14  ssi.o(i.SSIDataGet)
    SSIDataPut                               0x00009137   Thumb Code    12  ssi.o(i.SSIDataPut)
    SSIEnable                                0x00009143   Thumb Code    10  ssi.o(i.SSIEnable)
    SysCtlClockGet                           0x0000914d   Thumb Code   438  sysctl.o(i.SysCtlClockGet)
    SysCtlClockSet                           0x00009331   Thumb Code   288  sysctl.o(i.SysCtlClockSet)
    SysCtlLDOSet                             0x00009469   Thumb Code     6  sysctl.o(i.SysCtlLDOSet)
    SysCtlPeripheralDisable                  0x00009475   Thumb Code    28  sysctl.o(i.SysCtlPeripheralDisable)
    SysCtlPeripheralEnable                   0x00009495   Thumb Code    26  sysctl.o(i.SysCtlPeripheralEnable)
    SysCtlPeripheralReset                    0x000094b5   Thumb Code    50  sysctl.o(i.SysCtlPeripheralReset)
    SysCtlSleep                              0x000094ed   Thumb Code     4  sysctl.o(i.SysCtlSleep)
    SysTickEnable                            0x000094f1   Thumb Code    14  systick.o(i.SysTickEnable)
    SysTickIntEnable                         0x000094ff   Thumb Code    14  systick.o(i.SysTickIntEnable)
    SysTickPeriodSet                         0x0000950d   Thumb Code    10  systick.o(i.SysTickPeriodSet)
    TimerConfigure                           0x00009517   Thumb Code    28  timer.o(i.TimerConfigure)
    TimerEnable                              0x00009533   Thumb Code    14  timer.o(i.TimerEnable)
    TimerIntClear                            0x00009541   Thumb Code     4  timer.o(i.TimerIntClear)
    TimerIntDisable                          0x00009545   Thumb Code    10  timer.o(i.TimerIntDisable)
    TimerIntEnable                           0x0000954f   Thumb Code     8  timer.o(i.TimerIntEnable)
    TimerLoadSet                             0x00009557   Thumb Code    18  timer.o(i.TimerLoadSet)
    TimerPrescaleSet                         0x00009569   Thumb Code    18  timer.o(i.TimerPrescaleSet)
    TimerValueGet                            0x0000957b   Thumb Code    10  timer.o(i.TimerValueGet)
    UARTCharGetNonBlocking                   0x00009585   Thumb Code    16  uart.o(i.UARTCharGetNonBlocking)
    UARTCharPut                              0x00009595   Thumb Code    12  uart.o(i.UARTCharPut)
    UARTCharsAvail                           0x000095a1   Thumb Code    10  uart.o(i.UARTCharsAvail)
    UARTConfigSetExpClk                      0x000095ab   Thumb Code   110  uart.o(i.UARTConfigSetExpClk)
    UARTEnable                               0x00009619   Thumb Code    20  uart.o(i.UARTEnable)
    UARTFIFOLevelSet                         0x0000962d   Thumb Code     6  uart.o(i.UARTFIFOLevelSet)
    UARTIntClear                             0x00009633   Thumb Code     4  uart.o(i.UARTIntClear)
    UARTIntDisable                           0x00009637   Thumb Code    10  uart.o(i.UARTIntDisable)
    UARTIntEnable                            0x00009641   Thumb Code     8  uart.o(i.UARTIntEnable)
    UARTIntStatus                            0x00009649   Thumb Code    10  uart.o(i.UARTIntStatus)
    __mathlib_dbl_underflow                  0x00009655   Thumb Code    10  dunder.o(i.__mathlib_dbl_underflow)
    __mathlib_narrow                         0x00009665   Thumb Code    16  narrow.o(i.__mathlib_narrow)
    __mathlib_tofloat                        0x00009675   Thumb Code   132  narrow.o(i.__mathlib_tofloat)
    __support_ldexp                          0x000096fd   Thumb Code    22  ldexp.o(i.__support_ldexp)
    _is_digit                                0x00009713   Thumb Code    14  __printf_wp.o(i._is_digit)
    atof                                     0x00009721   Thumb Code    42  atof.o(i.atof)
    frexp                                    0x0000974d   Thumb Code    80  frexp.o(i.frexp)
    ldexp                                    0x000097a5   Thumb Code   126  ldexp.o(i.ldexp)
    _get_lc_ctype                            0x00009825   Thumb Code    44  lc_ctype_c.o(locale$$code)
    _get_lc_numeric                          0x00009851   Thumb Code    44  lc_numeric_c.o(locale$$code)
    __aeabi_d2f                              0x0000987d   Thumb Code     0  d2f.o(x$fpl$d2f)
    _d2f                                     0x0000987d   Thumb Code    98  d2f.o(x$fpl$d2f)
    __fpl_dcheck_NaN1                        0x000098e1   Thumb Code    10  dcheck1.o(x$fpl$dcheck1)
    __fpl_dcmp_Inf                           0x000098f1   Thumb Code    24  dcmpi.o(x$fpl$dcmpinf)
    __aeabi_cdcmpeq                          0x00009909   Thumb Code     0  deqf.o(x$fpl$deqf)
    _dcmpeq                                  0x00009909   Thumb Code   120  deqf.o(x$fpl$deqf)
    __aeabi_d2iz                             0x00009981   Thumb Code     0  dfix.o(x$fpl$dfix)
    _dfix                                    0x00009981   Thumb Code    94  dfix.o(x$fpl$dfix)
    __aeabi_cdcmple                          0x000099e1   Thumb Code     0  dleqf.o(x$fpl$dleqf)
    _dcmple                                  0x000099e1   Thumb Code   120  dleqf.o(x$fpl$dleqf)
    __fpl_dcmple_InfNaN                      0x00009a43   Thumb Code     0  dleqf.o(x$fpl$dleqf)
    __fpl_dnaninf                            0x00009a59   Thumb Code   156  dnaninf.o(x$fpl$dnaninf)
    __aeabi_cdrcmple                         0x00009af5   Thumb Code     0  drleqf.o(x$fpl$drleqf)
    _drcmple                                 0x00009af5   Thumb Code   108  drleqf.o(x$fpl$drleqf)
    __fpl_fcmp_Inf                           0x00009b61   Thumb Code    24  fcmpi.o(x$fpl$fcmpinf)
    __aeabi_f2iz                             0x00009b79   Thumb Code     0  ffix.o(x$fpl$ffix)
    _ffix                                    0x00009b79   Thumb Code    54  ffix.o(x$fpl$ffix)
    __aeabi_cfcmple                          0x00009bb1   Thumb Code     0  fleqf.o(x$fpl$fleqf)
    _fcmple                                  0x00009bb1   Thumb Code   104  fleqf.o(x$fpl$fleqf)
    __fpl_fcmple_InfNaN                      0x00009c03   Thumb Code     0  fleqf.o(x$fpl$fleqf)
    __fpl_fnaninf                            0x00009c19   Thumb Code   140  fnaninf.o(x$fpl$fnaninf)
    __fpl_fretinf                            0x00009ca5   Thumb Code    10  fretinf.o(x$fpl$fretinf)
    __aeabi_cfrcmple                         0x00009caf   Thumb Code     0  frleqf.o(x$fpl$frleqf)
    _frcmple                                 0x00009caf   Thumb Code    98  frleqf.o(x$fpl$frleqf)
    __fpl_return_NaN                         0x00009d11   Thumb Code   100  retnan.o(x$fpl$retnan)
    __ARM_scalbn                             0x00009d75   Thumb Code    92  scalbn.o(x$fpl$scalbn)
    _scanf_real                              0x00009dd1   Thumb Code     4  scanf1.o(x$fpl$scanf1)
    _scanf_hex_real                          0x00009dd5   Thumb Code     4  scanf2.o(x$fpl$scanf2)
    _scanf_infnan                            0x00009dd9   Thumb Code     4  scanf2.o(x$fpl$scanf2)
    __fpl_cmpreturn                          0x00009ddd   Thumb Code    48  trapv.o(x$fpl$trapveneer)
    __I$use$fp                               0x00009e0c   Number         0  usenofp.o(x$fpl$usenofp)
    OSMapTbl                                 0x0000a3a8   Data           8  os_core.o(.constdata)
    OSUnMapTbl                               0x0000a3b0   Data         256  os_core.o(.constdata)
    g_sKitronix320x240x16_SSD2119            0x0000a4b0   Data          40  kitronix320x240x16_ssd2119_8bit.o(.constdata)
    g_pulGPIOBase                            0x0000a4d8   Data          36  set_pinout.o(.constdata)
    g_sFontCm30                              0x0000b308   Data         200  fontcm30.o(.constdata)
    g_sFontCm40                              0x0000c6bc   Data         200  fontcm40.o(.constdata)
    Region$$Table$$Base                      0x0000c8b4   Number         0  anon$$obj.o(Region$$Table)
    Region$$Table$$Limit                     0x0000c8d4   Number         0  anon$$obj.o(Region$$Table)
    __aeabi_HUGE_VAL                         0x0000c8d4   Data           0  fpconst.o(c$$dinf)
    __aeabi_HUGE_VALL                        0x0000c8d4   Data           0  fpconst.o(c$$dinf)
    __aeabi_INFINITY                         0x0000c8d4   Data           0  fpconst.o(c$$dinf)
    __dInf                                   0x0000c8d4   Data           0  fpconst.o(c$$dinf)
    __huge_val                               0x0000c8d4   Data           0  fpconst.o(c$$dinf)
    __ctype                                  0x0000c8e9   Data           0  lc_ctype_c.o(locale$$data)
    last_switch_poll                         0x20000000   Data           4  evboard.o(.data)
    local_radio_flags                        0x20000008   Data           4  evboard.o(.data)
    sw_state                                 0x2000000c   Data           4  evboard.o(.data)
    GucFlag                                  0x20000014   Data           1  halstack.o(.data)
    GucIfSuccess                             0x20000015   Data           1  halstack.o(.data)
    radio_state                              0x2000001c   Data           1  halstack.o(.data)
    halMacTimerOflow                         0x2000001d   Data           1  halstack.o(.data)
    d                                        0x20000020   Data           4  target.o(.data)
    b                                        0x20000024   Data           4  target.o(.data)
    rxFlag                                   0x20000028   Data           1  target.o(.data)
    payload                                  0x20000029   Data           5  target.o(.data)
    numTimeouts                              0x2000002e   Data           2  target.o(.data)
    first_packet                             0x20000030   Data           1  target.o(.data)
    ping_cnt1                                0x20000032   Data           2  target.o(.data)
    my_timer                                 0x20000034   Data           4  target.o(.data)
    last_tx_start                            0x20000038   Data           4  target.o(.data)
    dstADDR                                  0x2000003c   Data           8  target.o(.data)
    sRect                                    0x20000044   Data           8  target.o(.data)
    ulLoop                                   0x2000004c   Data           4  target.o(.data)
    lasttemp                                 0x20000050   Data           4  target.o(.data)
    a                                        0x20000054   Data           1  target.o(.data)
    m                                        0x20000055   Data           1  target.o(.data)
    n                                        0x20000056   Data           1  target.o(.data)
    o                                        0x20000057   Data           1  target.o(.data)
    n1                                       0x20000058   Data           1  target.o(.data)
    e                                        0x2000005c   Data           4  target.o(.data)
    c                                        0x20000060   Data           4  target.o(.data)
    C                                        0x20000064   Data           4  target.o(.data)
    x                                        0x20000068   Data           4  target.o(.data)
    y                                        0x2000006c   Data           4  target.o(.data)
    Z                                        0x20000070   Data           4  target.o(.data)
    apsState                                 0x20000074   Data           1  aps.o(.data)
    apsEndPoints                             0x20000075   Data           6  aps.o(.data)
    debug_level                              0x2000007d   Data           1  debug.o(.data)
    a_mac_service                            0x20000082   Data           6  mac.o(.data)
    macState                                 0x20000088   Data           1  mac.o(.data)
    macTxFSM_status                          0x20000089   Data           1  mac.o(.data)
    nwkState                                 0x20000091   Data           1  nwk.o(.data)
    nwkDSN                                   0x20000092   Data           1  nwk.o(.data)
    phyState                                 0x20000093   Data           1  phy.o(.data)
    bindtable                                0x20000094   Data          76  staticbind.o(.data)
    zepState                                 0x200000e4   Data           1  zep.o(.data)
    zep_pib                                  0x200000e8   Data           8  zep.o(.data)
    OSCtxSwCtr                               0x200000f0   Data           4  os_core.o(.data)
    OSIntNesting                             0x200000f4   Data           1  os_core.o(.data)
    OSIntExitY                               0x200000f5   Data           1  os_core.o(.data)
    OSLockNesting                            0x200000f6   Data           1  os_core.o(.data)
    OSPrioCur                                0x200000f7   Data           1  os_core.o(.data)
    OSPrioHighRdy                            0x200000f8   Data           1  os_core.o(.data)
    OSRdyGrp                                 0x200000f9   Data           1  os_core.o(.data)
    OSRdyTbl                                 0x200000fa   Data           1  os_core.o(.data)
    OSRunning                                0x200000fb   Data           1  os_core.o(.data)
    OSTaskCtr                                0x200000fc   Data           1  os_core.o(.data)
    OSIdleCtr                                0x20000100   Data           4  os_core.o(.data)
    OSTCBCur                                 0x20000104   Data           4  os_core.o(.data)
    OSTCBFreeList                            0x20000108   Data           4  os_core.o(.data)
    OSTCBHighRdy                             0x2000010c   Data           4  os_core.o(.data)
    OSTCBList                                0x20000110   Data           4  os_core.o(.data)
    OsEnterSum                               0x20000114   Data           4  os_cpu_c.o(.data)
    WriteData                                0x20000118   Data           4  kitronix320x240x16_ssd2119_8bit.o(.data)
    WriteCommand                             0x2000011c   Data           4  kitronix320x240x16_ssd2119_8bit.o(.data)
    g_eDaughterType                          0x20000120   Data           2  set_pinout.o(.data)
    mac_addr_tbl                             0x20000124   Data         340  halneighbor.o(.bss)
    tempBuf                                  0x20000298   Data          30  target.o(.bss)
    sContext                                 0x200002b8   Data          28  target.o(.bss)
    buffer                                   0x200002d4   Data          16  target.o(.bss)
    buffer1                                  0x200002e4   Data          16  target.o(.bss)
    buffer2                                  0x200002f4   Data          16  target.o(.bss)
    buffer3                                  0x20000304   Data          16  target.o(.bss)
    buffer4                                  0x20000314   Data          16  target.o(.bss)
    buffer5                                  0x20000324   Data          16  target.o(.bss)
    buffer6                                  0x20000334   Data          16  target.o(.bss)
    buffer7                                  0x20000344   Data          16  target.o(.bss)
    buffer8                                  0x20000354   Data          16  target.o(.bss)
    buffer9                                  0x20000364   Data          16  target.o(.bss)
    buffer10                                 0x20000374   Data          16  target.o(.bss)
    buffer11                                 0x20000384   Data          16  target.o(.bss)
    buffer12                                 0x20000394   Data          16  target.o(.bss)
    buffer13                                 0x200003a4   Data          16  target.o(.bss)
    buffer14                                 0x200003b4   Data          16  target.o(.bss)
    buffer15                                 0x200003c4   Data          16  target.o(.bss)
    buffer16                                 0x200003d4   Data          16  target.o(.bss)
    buffer17                                 0x200003e4   Data          16  target.o(.bss)
    DATA                                     0x200003f4   Data          16  target.o(.bss)
    aps_pib                                  0x20000404   Data         112  aps.o(.bss)
    a_aps_service                            0x20000474   Data          10  aps.o(.bss)
    a_aps_tx_data                            0x20000480   Data          36  aps.o(.bss)
    a_aps_rx_data                            0x200004a4   Data          40  aps.o(.bss)
    indirect_data                            0x200004cc   Data          40  aps.o(.bss)
    mac_pib                                  0x200004f4   Data          96  mac.o(.bss)
    a_mac_tx_data                            0x20000554   Data          20  mac.o(.bss)
    a_mac_rx_data                            0x20000568   Data          28  mac.o(.bss)
    mem_heap                                 0x20000584   Data       10240  memalloc.o(.bss)
    mac_nbr_tbl                              0x20002d84   Data         136  neighbor.o(.bss)
    a_nwk_service                            0x20002e0c   Data          16  nwk.o(.bss)
    a_nwk_rx_data                            0x20002e1c   Data          16  nwk.o(.bss)
    nwk_pib                                  0x20002e2c   Data          48  nwk.o(.bss)
    a_nwk_tx_data                            0x20002e5c   Data          16  nwk.o(.bss)
    phy_pib                                  0x20002e6c   Data          28  phy.o(.bss)
    a_phy_service                            0x20002e88   Data          12  phy.o(.bss)
    tmpTxBuff                                0x20002e94   Data         127  phy.o(.bss)
    OSTaskIdleStk                            0x20002f14   Data         200  os_core.o(.bss)
    OSTCBPrioTbl                             0x20002fdc   Data          32  os_core.o(.bss)
    OSTCBTbl                                 0x20002ffc   Data         100  os_core.o(.bss)
    __libspace_start                         0x20005128   Data          96  libspace.o(.bss)
    __temporary_stack_top$libspace           0x20005188   Data           0  libspace.o(.bss)



==============================================================================

Memory Map of the image

  Image Entry point : 0x0000011d

  Load Region LR_IROM1 (Base: 0x00000000, Size: 0x0000cb2c, Max: 0x00040000, ABSOLUTE)

    Execution Region ER_IROM1 (Base: 0x00000000, Size: 0x0000ca08, Max: 0x00040000, ABSOLUTE)

    Base Addr    Size         Type   Attr      Idx    E Section Name        Object

    0x00000000   0x0000012c   Code   RO          190  * RESET               startup.o
    0x0000012c   0x00000008   Code   RO         2716  * !!!main             c_w.l(__main.o)
    0x00000134   0x00000034   Code   RO         3025    !!!scatter          c_w.l(__scatter.o)
    0x00000168   0x0000001a   Code   RO         3027    !!handler_copy      c_w.l(__scatter_copy.o)
    0x00000182   0x00000002   PAD
    0x00000184   0x0000001c   Code   RO         3029    !!handler_zi        c_w.l(__scatter_zi.o)
    0x000001a0   0x00000000   Code   RO         2703    .ARM.Collect$$_printf_percent$$00000000  c_w.l(_printf_percent.o)
    0x000001a0   0x00000006   Code   RO         2702    .ARM.Collect$$_printf_percent$$00000009  c_w.l(_printf_d.o)
    0x000001a6   0x00000004   Code   RO         2745    .ARM.Collect$$_printf_percent$$00000017  c_w.l(_printf_percent_end.o)
    0x000001aa   0x00000002   Code   RO         2816    .ARM.Collect$$libinit$$00000000  c_w.l(libinit.o)
    0x000001ac   0x00000000   Code   RO         2818    .ARM.Collect$$libinit$$00000002  c_w.l(libinit2.o)
    0x000001ac   0x00000000   Code   RO         2821    .ARM.Collect$$libinit$$00000008  c_w.l(libinit2.o)
    0x000001ac   0x00000000   Code   RO         2823    .ARM.Collect$$libinit$$0000000A  c_w.l(libinit2.o)
    0x000001ac   0x00000000   Code   RO         2825    .ARM.Collect$$libinit$$0000000C  c_w.l(libinit2.o)
    0x000001ac   0x00000006   Code   RO         2826    .ARM.Collect$$libinit$$0000000D  c_w.l(libinit2.o)
    0x000001b2   0x00000000   Code   RO         2828    .ARM.Collect$$libinit$$0000000F  c_w.l(libinit2.o)
    0x000001b2   0x0000000c   Code   RO         2829    .ARM.Collect$$libinit$$00000010  c_w.l(libinit2.o)
    0x000001be   0x00000000   Code   RO         2830    .ARM.Collect$$libinit$$00000011  c_w.l(libinit2.o)
    0x000001be   0x00000000   Code   RO         2832    .ARM.Collect$$libinit$$00000013  c_w.l(libinit2.o)
    0x000001be   0x0000000a   Code   RO         2833    .ARM.Collect$$libinit$$00000014  c_w.l(libinit2.o)
    0x000001c8   0x00000000   Code   RO         2834    .ARM.Collect$$libinit$$00000015  c_w.l(libinit2.o)
    0x000001c8   0x00000000   Code   RO         2836    .ARM.Collect$$libinit$$00000017  c_w.l(libinit2.o)
    0x000001c8   0x00000000   Code   RO         2838    .ARM.Collect$$libinit$$00000019  c_w.l(libinit2.o)
    0x000001c8   0x00000000   Code   RO         2840    .ARM.Collect$$libinit$$0000001B  c_w.l(libinit2.o)
    0x000001c8   0x00000000   Code   RO         2842    .ARM.Collect$$libinit$$0000001D  c_w.l(libinit2.o)
    0x000001c8   0x00000000   Code   RO         2844    .ARM.Collect$$libinit$$0000001F  c_w.l(libinit2.o)
    0x000001c8   0x00000000   Code   RO         2846    .ARM.Collect$$libinit$$00000021  c_w.l(libinit2.o)
    0x000001c8   0x00000000   Code   RO         2848    .ARM.Collect$$libinit$$00000023  c_w.l(libinit2.o)
    0x000001c8   0x00000000   Code   RO         2852    .ARM.Collect$$libinit$$0000002A  c_w.l(libinit2.o)
    0x000001c8   0x00000000   Code   RO         2854    .ARM.Collect$$libinit$$0000002C  c_w.l(libinit2.o)
    0x000001c8   0x00000000   Code   RO         2856    .ARM.Collect$$libinit$$0000002E  c_w.l(libinit2.o)
    0x000001c8   0x00000000   Code   RO         2858    .ARM.Collect$$libinit$$00000030  c_w.l(libinit2.o)
    0x000001c8   0x00000002   Code   RO         2859    .ARM.Collect$$libinit$$00000031  c_w.l(libinit2.o)
    0x000001ca   0x00000002   Code   RO         2947    .ARM.Collect$$libshutdown$$00000000  c_w.l(libshutdown.o)
    0x000001cc   0x00000000   Code   RO         2977    .ARM.Collect$$libshutdown$$00000003  c_w.l(libshutdown2.o)
    0x000001cc   0x00000000   Code   RO         2980    .ARM.Collect$$libshutdown$$00000006  c_w.l(libshutdown2.o)
    0x000001cc   0x00000000   Code   RO         2983    .ARM.Collect$$libshutdown$$00000009  c_w.l(libshutdown2.o)
    0x000001cc   0x00000000   Code   RO         2985    .ARM.Collect$$libshutdown$$0000000B  c_w.l(libshutdown2.o)
    0x000001cc   0x00000000   Code   RO         2988    .ARM.Collect$$libshutdown$$0000000E  c_w.l(libshutdown2.o)
    0x000001cc   0x00000002   Code   RO         2989    .ARM.Collect$$libshutdown$$0000000F  c_w.l(libshutdown2.o)
    0x000001ce   0x00000000   Code   RO         2734    .ARM.Collect$$rtentry$$00000000  c_w.l(rtentry.o)
    0x000001ce   0x00000000   Code   RO         2760    .ARM.Collect$$rtentry$$00000002  c_w.l(rtentry2.o)
    0x000001ce   0x00000006   Code   RO         2772    .ARM.Collect$$rtentry$$00000004  c_w.l(rtentry4.o)
    0x000001d4   0x00000000   Code   RO         2762    .ARM.Collect$$rtentry$$00000009  c_w.l(rtentry2.o)
    0x000001d4   0x00000004   Code   RO         2763    .ARM.Collect$$rtentry$$0000000A  c_w.l(rtentry2.o)
    0x000001d8   0x00000000   Code   RO         2765    .ARM.Collect$$rtentry$$0000000C  c_w.l(rtentry2.o)
    0x000001d8   0x00000008   Code   RO         2766    .ARM.Collect$$rtentry$$0000000D  c_w.l(rtentry2.o)
    0x000001e0   0x00000002   Code   RO         2860    .ARM.Collect$$rtexit$$00000000  c_w.l(rtexit.o)
    0x000001e2   0x00000000   Code   RO         2909    .ARM.Collect$$rtexit$$00000002  c_w.l(rtexit2.o)
    0x000001e2   0x00000004   Code   RO         2910    .ARM.Collect$$rtexit$$00000003  c_w.l(rtexit2.o)
    0x000001e6   0x00000006   Code   RO         2911    .ARM.Collect$$rtexit$$00000004  c_w.l(rtexit2.o)
    0x000001ec   0x00000006   Code   RO         1890    .emb_text           driverlib.lib(sysctl.o)
    0x000001f2   0x00000002   PAD
    0x000001f4   0x00000026   Code   RO         2660    .emb_text           driverlib.lib(cpu.o)
    0x0000021a   0x00000002   PAD
    0x0000021c   0x0000098c   Code   RO            1    .text               evboard.o
    0x00000ba8   0x00000244   Code   RO          116    .text               evbradio.o
    0x00000dec   0x00000390   Code   RO          156    .text               halstack.o
    0x0000117c   0x0000001c   Code   RO          191    .text               startup.o
    0x00001198   0x00000a2c   Code   RO          197    .text               target.o
    0x00001bc4   0x00000ecc   Code   RO          398    .text               aps.o
    0x00002a90   0x000001a8   Code   RO          472    .text               console.o
    0x00002c38   0x00000bb4   Code   RO          507    .text               debug.o
    0x000037ec   0x0000113c   Code   RO          530    .text               mac.o
    0x00004928   0x00000184   Code   RO          550    .text               memalloc.o
    0x00004aac   0x000004d8   Code   RO          575    .text               neighbor.o
    0x00004f84   0x00000740   Code   RO          594    .text               nwk.o
    0x000056c4   0x000000ec   Code   RO          619    .text               phy.o
    0x000057b0   0x000000e0   Code   RO          638    .text               staticbind.o
    0x00005890   0x00000278   Code   RO          664    .text               zep.o
    0x00005b08   0x00000174   Code   RO          806    .text               os_task.o
    0x00005c7c   0x000003e0   Code   RO          830    .text               os_core.o
    0x0000605c   0x000000ac   Code   RO          850    .text               os_cpu_c.o
    0x00006108   0x0000081c   Code   RO          878    .text               kitronix320x240x16_ssd2119_8bit.o
    0x00006924   0x000005b0   Code   RO          935    .text               set_pinout.o
    0x00006ed4   0x000000cc   Code   RO          960    .text               main.o
    0x00006fa0   0x00000012   Code   RO         2672    .text               c_w.l(isprint.o)
    0x00006fb2   0x00000002   PAD
    0x00006fb4   0x00000028   Code   RO         2676    .text               c_w.l(noretval__2sprintf.o)
    0x00006fdc   0x00000068   Code   RO         2678    .text               c_w.l(__printf.o)
    0x00007044   0x00000078   Code   RO         2680    .text               c_w.l(_printf_dec.o)
    0x000070bc   0x00000048   Code   RO         2704    .text               c_w.l(strcpy.o)
    0x00007104   0x00000096   Code   RO         2706    .text               c_w.l(strncmp.o)
    0x0000719a   0x0000008a   Code   RO         2708    .text               c_w.l(rt_memcpy_v6.o)
    0x00007224   0x00000044   Code   RO         2710    .text               c_w.l(rt_memclr.o)
    0x00007268   0x0000004e   Code   RO         2712    .text               c_w.l(rt_memclr_w.o)
    0x000072b6   0x00000006   Code   RO         2714    .text               c_w.l(heapauxi.o)
    0x000072bc   0x00000010   Code   RO         2735    .text               c_w.l(rt_ctype_table.o)
    0x000072cc   0x00000016   Code   RO         2737    .text               c_w.l(_rserrno.o)
    0x000072e2   0x000000b8   Code   RO         2739    .text               c_w.l(_printf_intcommon.o)
    0x0000739a   0x00000002   PAD
    0x0000739c   0x00000030   Code   RO         2741    .text               c_w.l(_printf_char_common.o)
    0x000073cc   0x0000000a   Code   RO         2743    .text               c_w.l(_sputc.o)
    0x000073d6   0x00000002   PAD
    0x000073d8   0x000000a0   Code   RO         2746    .text               c_w.l(strtod.o)
    0x00007478   0x00000064   Code   RO         2748    .text               c_w.l(rt_memcpy_w.o)
    0x000074dc   0x00000008   Code   RO         2777    .text               c_w.l(rt_locale_intlibspace.o)
    0x000074e4   0x00000008   Code   RO         2782    .text               c_w.l(rt_errno_addr_intlibspace.o)
    0x000074ec   0x00000012   Code   RO         2784    .text               c_w.l(isspace.o)
    0x000074fe   0x00000040   Code   RO         2788    .text               c_w.l(_sgetc.o)
    0x0000753e   0x00000002   PAD
    0x00007540   0x00000008   Code   RO         2800    .text               c_w.l(libspace.o)
    0x00007548   0x0000004a   Code   RO         2803    .text               c_w.l(sys_stackheap_outer.o)
    0x00007592   0x00000002   PAD
    0x00007594   0x000004a4   Code   RO         2805    .text               c_w.l(scanf_fp.o)
    0x00007a38   0x0000000c   Code   RO         2807    .text               c_w.l(exit.o)
    0x00007a44   0x00000080   Code   RO         2809    .text               c_w.l(strcmpv7m.o)
    0x00007ac4   0x000000e4   Code   RO         2862    .text               c_w.l(bigflt0.o)
    0x00007ba8   0x00000314   Code   RO         2915    .text               c_w.l(scanf_hexfp.o)
    0x00007ebc   0x0000013c   Code   RO         2917    .text               c_w.l(scanf_infnan.o)
    0x00007ff8   0x0000000c   Code   RO         2933    .text               c_w.l(sys_exit.o)
    0x00008004   0x00000026   Code   RO         2937    .text               c_w.l(llshl.o)
    0x0000802a   0x0000001c   Code   RO         2939    .text               c_w.l(_chval.o)
    0x00008046   0x00000002   Code   RO         2966    .text               c_w.l(use_no_semi.o)
    0x00008048   0x00000000   Code   RO         2968    .text               c_w.l(indicate_semi.o)
    0x00008048   0x00000338   Code   RO         2875    CL$$btod_div_common  c_w.l(btod.o)
    0x00008380   0x00000054   Code   RO         2873    CL$$btod_e2d        c_w.l(btod.o)
    0x000083d4   0x000000c6   Code   RO         2872    CL$$btod_e2e        c_w.l(btod.o)
    0x0000849a   0x00000028   Code   RO         2869    CL$$btod_ediv       c_w.l(btod.o)
    0x000084c2   0x00000028   Code   RO         2871    CL$$btod_edivd      c_w.l(btod.o)
    0x000084ea   0x00000028   Code   RO         2868    CL$$btod_emul       c_w.l(btod.o)
    0x00008512   0x00000028   Code   RO         2870    CL$$btod_emuld      c_w.l(btod.o)
    0x0000853a   0x00000244   Code   RO         2874    CL$$btod_mult_common  c_w.l(btod.o)
    0x0000877e   0x00000002   PAD
    0x00008780   0x000000e8   Code   RO          875    UCOSII_ASM          os_cpu_a.o
    0x00008868   0x00000004   Code   RO         1099    i.EPIAddressMapSet  driverlib.lib(epi.o)
    0x0000886c   0x00000022   Code   RO         1100    i.EPIConfigGPModeSet  driverlib.lib(epi.o)
    0x0000888e   0x0000002e   Code   RO         1102    i.EPIConfigHB8Set   driverlib.lib(epi.o)
    0x000088bc   0x0000000c   Code   RO         1103    i.EPIConfigSDRAMSet  driverlib.lib(epi.o)
    0x000088c8   0x00000004   Code   RO         1104    i.EPIDividerSet     driverlib.lib(epi.o)
    0x000088cc   0x00000004   Code   RO         1113    i.EPIModeSet        driverlib.lib(epi.o)
    0x000088d0   0x00000028   Code   RO         1271    i.GPIODirModeSet    driverlib.lib(gpio.o)
    0x000088f8   0x0000003a   Code   RO         1274    i.GPIOIntTypeSet    driverlib.lib(gpio.o)
    0x00008932   0x000000b0   Code   RO         1276    i.GPIOPadConfigSet  driverlib.lib(gpio.o)
    0x000089e2   0x00000006   Code   RO         1278    i.GPIOPinIntClear   driverlib.lib(gpio.o)
    0x000089e8   0x0000000c   Code   RO         1280    i.GPIOPinIntEnable  driverlib.lib(gpio.o)
    0x000089f4   0x0000000e   Code   RO         1281    i.GPIOPinIntStatus  driverlib.lib(gpio.o)
    0x00008a02   0x00000006   Code   RO         1282    i.GPIOPinRead       driverlib.lib(gpio.o)
    0x00008a08   0x0000001c   Code   RO         1288    i.GPIOPinTypeGPIOInput  driverlib.lib(gpio.o)
    0x00008a24   0x0000001c   Code   RO         1289    i.GPIOPinTypeGPIOOutput  driverlib.lib(gpio.o)
    0x00008a40   0x0000001c   Code   RO         1291    i.GPIOPinTypeI2C    driverlib.lib(gpio.o)
    0x00008a5c   0x0000001c   Code   RO         1295    i.GPIOPinTypeSSI    driverlib.lib(gpio.o)
    0x00008a78   0x0000001c   Code   RO         1297    i.GPIOPinTypeUART   driverlib.lib(gpio.o)
    0x00008a94   0x00000006   Code   RO         1300    i.GPIOPinWrite      driverlib.lib(gpio.o)
    0x00008a9a   0x00000020   Code   RO          979    i.GrContextInit     grlib.lib(context.o)
    0x00008aba   0x00000058   Code   RO         2638    i.GrLineDrawH       grlib.lib(line.o)
    0x00008b12   0x00000052   Code   RO         2639    i.GrLineDrawV       grlib.lib(line.o)
    0x00008b64   0x0000006c   Code   RO         1031    i.GrRectDraw        grlib.lib(rectangle.o)
    0x00008bd0   0x000000b4   Code   RO         1032    i.GrRectFill        grlib.lib(rectangle.o)
    0x00008c84   0x000002a6   Code   RO         1061    i.GrStringDraw      grlib.lib(string.o)
    0x00008f2a   0x00000042   Code   RO         1065    i.GrStringWidthGet  grlib.lib(string.o)
    0x00008f6c   0x00000004   Code   RO         1488    i.I2CMasterControl  driverlib.lib(i2c.o)
    0x00008f70   0x00000004   Code   RO         1489    i.I2CMasterDataGet  driverlib.lib(i2c.o)
    0x00008f74   0x00000004   Code   RO         1490    i.I2CMasterDataPut  driverlib.lib(i2c.o)
    0x00008f78   0x0000000a   Code   RO         1492    i.I2CMasterEnable   driverlib.lib(i2c.o)
    0x00008f82   0x00000018   Code   RO         1493    i.I2CMasterErr      driverlib.lib(i2c.o)
    0x00008f9a   0x00000002   PAD
    0x00008f9c   0x00000034   Code   RO         1494    i.I2CMasterInitExpClk  driverlib.lib(i2c.o)
    0x00008fd0   0x00000008   Code   RO         1495    i.I2CMasterIntClear  driverlib.lib(i2c.o)
    0x00008fd8   0x00000018   Code   RO         1498    i.I2CMasterIntStatus  driverlib.lib(i2c.o)
    0x00008ff0   0x00000008   Code   RO         1499    i.I2CMasterSlaveAddrSet  driverlib.lib(i2c.o)
    0x00008ff8   0x00000068   Code   RO         1679    i.IntDisable        driverlib.lib(interrupt.o)
    0x00009060   0x00000068   Code   RO         1680    i.IntEnable         driverlib.lib(interrupt.o)
    0x000090c8   0x0000000a   Code   RO         1681    i.IntMasterDisable  driverlib.lib(interrupt.o)
    0x000090d2   0x0000000a   Code   RO         1682    i.IntMasterEnable   driverlib.lib(interrupt.o)
    0x000090dc   0x0000004c   Code   RO         1783    i.SSIConfigSetExpClk  driverlib.lib(ssi.o)
    0x00009128   0x0000000e   Code   RO         1786    i.SSIDataGet        driverlib.lib(ssi.o)
    0x00009136   0x0000000c   Code   RO         1788    i.SSIDataPut        driverlib.lib(ssi.o)
    0x00009142   0x0000000a   Code   RO         1791    i.SSIEnable         driverlib.lib(ssi.o)
    0x0000914c   0x000001e4   Code   RO         1895    i.SysCtlClockGet    driverlib.lib(sysctl.o)
    0x00009330   0x00000138   Code   RO         1896    i.SysCtlClockSet    driverlib.lib(sysctl.o)
    0x00009468   0x0000000c   Code   RO         1911    i.SysCtlLDOSet      driverlib.lib(sysctl.o)
    0x00009474   0x00000020   Code   RO         1919    i.SysCtlPeripheralDisable  driverlib.lib(sysctl.o)
    0x00009494   0x00000020   Code   RO         1920    i.SysCtlPeripheralEnable  driverlib.lib(sysctl.o)
    0x000094b4   0x00000038   Code   RO         1922    i.SysCtlPeripheralReset  driverlib.lib(sysctl.o)
    0x000094ec   0x00000004   Code   RO         1930    i.SysCtlSleep       driverlib.lib(sysctl.o)
    0x000094f0   0x0000000e   Code   RO         2156    i.SysTickEnable     driverlib.lib(systick.o)
    0x000094fe   0x0000000e   Code   RO         2158    i.SysTickIntEnable  driverlib.lib(systick.o)
    0x0000950c   0x0000000a   Code   RO         2162    i.SysTickPeriodSet  driverlib.lib(systick.o)
    0x00009516   0x0000001c   Code   RO         2218    i.TimerConfigure    driverlib.lib(timer.o)
    0x00009532   0x0000000e   Code   RO         2225    i.TimerEnable       driverlib.lib(timer.o)
    0x00009540   0x00000004   Code   RO         2226    i.TimerIntClear     driverlib.lib(timer.o)
    0x00009544   0x0000000a   Code   RO         2227    i.TimerIntDisable   driverlib.lib(timer.o)
    0x0000954e   0x00000008   Code   RO         2228    i.TimerIntEnable    driverlib.lib(timer.o)
    0x00009556   0x00000012   Code   RO         2233    i.TimerLoadSet      driverlib.lib(timer.o)
    0x00009568   0x00000012   Code   RO         2239    i.TimerPrescaleSet  driverlib.lib(timer.o)
    0x0000957a   0x0000000a   Code   RO         2243    i.TimerValueGet     driverlib.lib(timer.o)
    0x00009584   0x00000010   Code   RO         2389    i.UARTCharGetNonBlocking  driverlib.lib(uart.o)
    0x00009594   0x0000000c   Code   RO         2390    i.UARTCharPut       driverlib.lib(uart.o)
    0x000095a0   0x0000000a   Code   RO         2392    i.UARTCharsAvail    driverlib.lib(uart.o)
    0x000095aa   0x0000006e   Code   RO         2394    i.UARTConfigSetExpClk  driverlib.lib(uart.o)
    0x00009618   0x00000014   Code   RO         2399    i.UARTEnable        driverlib.lib(uart.o)
    0x0000962c   0x00000006   Code   RO         2404    i.UARTFIFOLevelSet  driverlib.lib(uart.o)
    0x00009632   0x00000004   Code   RO         2407    i.UARTIntClear      driverlib.lib(uart.o)
    0x00009636   0x0000000a   Code   RO         2408    i.UARTIntDisable    driverlib.lib(uart.o)
    0x00009640   0x00000008   Code   RO         2409    i.UARTIntEnable     driverlib.lib(uart.o)
    0x00009648   0x0000000a   Code   RO         2411    i.UARTIntStatus     driverlib.lib(uart.o)
    0x00009652   0x00000002   PAD
    0x00009654   0x00000010   Code   RO         2992    i.__mathlib_dbl_underflow  m_ws.l(dunder.o)
    0x00009664   0x00000010   Code   RO         2902    i.__mathlib_narrow  m_ws.l(narrow.o)
    0x00009674   0x00000088   Code   RO         2903    i.__mathlib_tofloat  m_ws.l(narrow.o)
    0x000096fc   0x00000016   Code   RO         2955    i.__support_ldexp   m_ws.l(ldexp.o)
    0x00009712   0x0000000e   Code   RO         2692    i._is_digit         c_w.l(__printf_wp.o)
    0x00009720   0x0000002a   Code   RO         2731    i.atof              m_ws.l(atof.o)
    0x0000974a   0x00000002   PAD
    0x0000974c   0x00000058   Code   RO         2928    i.frexp             m_ws.l(frexp.o)
    0x000097a4   0x0000007e   Code   RO         2956    i.ldexp             m_ws.l(ldexp.o)
    0x00009822   0x00000002   PAD
    0x00009824   0x0000002c   Code   RO         2791    locale$$code        c_w.l(lc_ctype_c.o)
    0x00009850   0x0000002c   Code   RO         2794    locale$$code        c_w.l(lc_numeric_c.o)
    0x0000987c   0x00000062   Code   RO         2718    x$fpl$d2f           fz_ws.l(d2f.o)
    0x000098de   0x00000002   PAD
    0x000098e0   0x00000010   Code   RO         2990    x$fpl$dcheck1       fz_ws.l(dcheck1.o)
    0x000098f0   0x00000018   Code   RO         2948    x$fpl$dcmpinf       fz_ws.l(dcmpi.o)
    0x00009908   0x00000078   Code   RO         2923    x$fpl$deqf          fz_ws.l(deqf.o)
    0x00009980   0x0000005e   Code   RO         2720    x$fpl$dfix          fz_ws.l(dfix.o)
    0x000099de   0x00000002   PAD
    0x000099e0   0x00000078   Code   RO         2950    x$fpl$dleqf         fz_ws.l(dleqf.o)
    0x00009a58   0x0000009c   Code   RO         2750    x$fpl$dnaninf       fz_ws.l(dnaninf.o)
    0x00009af4   0x0000006c   Code   RO         2925    x$fpl$drleqf        fz_ws.l(drleqf.o)
    0x00009b60   0x00000018   Code   RO         2796    x$fpl$fcmpinf       fz_ws.l(fcmpi.o)
    0x00009b78   0x00000036   Code   RO         2724    x$fpl$ffix          fz_ws.l(ffix.o)
    0x00009bae   0x00000002   PAD
    0x00009bb0   0x00000068   Code   RO         2752    x$fpl$fleqf         fz_ws.l(fleqf.o)
    0x00009c18   0x0000008c   Code   RO         2754    x$fpl$fnaninf       fz_ws.l(fnaninf.o)
    0x00009ca4   0x0000000a   Code   RO         2756    x$fpl$fretinf       fz_ws.l(fretinf.o)
    0x00009cae   0x00000062   Code   RO         2728    x$fpl$frleqf        fz_ws.l(frleqf.o)
    0x00009d10   0x00000064   Code   RO         2999    x$fpl$retnan        fz_ws.l(retnan.o)
    0x00009d74   0x0000005c   Code   RO         2952    x$fpl$scalbn        fz_ws.l(scalbn.o)
    0x00009dd0   0x00000004   Code   RO         2798    x$fpl$scanf1        fz_ws.l(scanf1.o)
    0x00009dd4   0x00000008   Code   RO         2896    x$fpl$scanf2        fz_ws.l(scanf2.o)
    0x00009ddc   0x00000030   Code   RO         3005    x$fpl$trapveneer    fz_ws.l(trapv.o)
    0x00009e0c   0x00000000   Code   RO         2758    x$fpl$usenofp       fz_ws.l(usenofp.o)
    0x00009e0c   0x0000000d   Data   RO            2    .constdata          evboard.o
    0x00009e19   0x0000006c   Data   RO          473    .constdata          console.o
    0x00009e85   0x00000523   Data   RO          508    .constdata          debug.o
    0x0000a3a8   0x00000108   Data   RO          832    .constdata          os_core.o
    0x0000a4b0   0x00000028   Data   RO          879    .constdata          kitronix320x240x16_ssd2119_8bit.o
    0x0000a4d8   0x00000084   Data   RO          936    .constdata          set_pinout.o
    0x0000a55c   0x00000dac   Data   RO         1003    .constdata          grlib.lib(fontcm30.o)
    0x0000b308   0x000000c8   Data   RO         1004    .constdata          grlib.lib(fontcm30.o)
    0x0000b3d0   0x000012ec   Data   RO         1017    .constdata          grlib.lib(fontcm40.o)
    0x0000c6bc   0x000000c8   Data   RO         1018    .constdata          grlib.lib(fontcm40.o)
    0x0000c784   0x0000009c   Data   RO         1933    .constdata          driverlib.lib(sysctl.o)
    0x0000c820   0x00000094   Data   RO         2863    .constdata          c_w.l(bigflt0.o)
    0x0000c8b4   0x00000020   Data   RO         3023    Region$$Table       anon$$obj.o
    0x0000c8d4   0x00000008   Data   RO         2889    c$$dinf             fz_ws.l(fpconst.o)
    0x0000c8dc   0x00000110   Data   RO         2790    locale$$data        c_w.l(lc_ctype_c.o)
    0x0000c9ec   0x0000001c   Data   RO         2793    locale$$data        c_w.l(lc_numeric_c.o)


    Execution Region RW_IRAM1 (Base: 0x20000000, Size: 0x000052f0, Max: 0x00018000, ABSOLUTE)

    Base Addr    Size         Type   Attr      Idx    E Section Name        Object

    0x20000000   0x00000012   Data   RW            3    .data               evboard.o
    0x20000012   0x00000002   PAD
    0x20000014   0x0000000c   Data   RW          158    .data               halstack.o
    0x20000020   0x00000054   Data   RW          199    .data               target.o
    0x20000074   0x00000009   Data   RW          400    .data               aps.o
    0x2000007d   0x00000001   Data   RW          509    .data               debug.o
    0x2000007e   0x00000002   PAD
    0x20000080   0x00000010   Data   RW          532    .data               mac.o
    0x20000090   0x00000003   Data   RW          596    .data               nwk.o
    0x20000093   0x00000001   Data   RW          621    .data               phy.o
    0x20000094   0x00000050   Data   RW          639    .data               staticbind.o
    0x200000e4   0x0000000c   Data   RW          665    .data               zep.o
    0x200000f0   0x00000024   Data   RW          833    .data               os_core.o
    0x20000114   0x00000004   Data   RW          851    .data               os_cpu_c.o
    0x20000118   0x00000008   Data   RW          880    .data               kitronix320x240x16_ssd2119_8bit.o
    0x20000120   0x00000002   Data   RW          937    .data               set_pinout.o
    0x20000122   0x00000002   PAD
    0x20000124   0x00000154   Zero   RW          134    .bss                halneighbor.o
    0x20000278   0x00000020   Zero   RW          157    .bss                halstack.o
    0x20000298   0x0000016c   Zero   RW          198    .bss                target.o
    0x20000404   0x000000f0   Zero   RW          399    .bss                aps.o
    0x200004f4   0x00000090   Zero   RW          531    .bss                mac.o
    0x20000584   0x00002800   Zero   RW          551    .bss                memalloc.o
    0x20002d84   0x00000088   Zero   RW          576    .bss                neighbor.o
    0x20002e0c   0x00000060   Zero   RW          595    .bss                nwk.o
    0x20002e6c   0x000000a7   Zero   RW          620    .bss                phy.o
    0x20002f13   0x00000001   PAD
    0x20002f14   0x0000014c   Zero   RW          831    .bss                os_core.o
    0x20003060   0x000020c8   Zero   RW          961    .bss                main.o
    0x20005128   0x00000060   Zero   RW         2801    .bss                c_w.l(libspace.o)
    0x20005188   0x00000064   Zero   RW          189    HEAP                startup.o
    0x200051ec   0x00000004   PAD
    0x200051f0   0x00000100   Zero   RW          188    STACK               startup.o


==============================================================================

Image component sizes


      Code (inc. data)   RO Data    RW Data    ZI Data      Debug   Object Name

      3788        184          0          9        240      17371   aps.o
       424         46        108          0          0       6702   console.o
      2996        580       1315          1          0      11413   debug.o
      2444         88         13         18          0      13989   evboard.o
       580         10          0          0          0       2429   evbradio.o
         0          0          0          0        340       2129   halneighbor.o
       912         58          0         12         32       5083   halstack.o
      2076         70         40          8          0      26320   kitronix320x240x16_ssd2119_8bit.o
      4412        182          0         16        144      12162   mac.o
       204         38          0          0       8392       1150   main.o
       388          4          0          0      10240       2910   memalloc.o
      1240         38          0          0        136       5879   neighbor.o
      1856         98          0          3         96       7768   nwk.o
       992         82        264         36        332       7038   os_core.o
       232         42          0          0          0        352   os_cpu_a.o
       172          0          0          4          0       6023   os_cpu_c.o
         0          0          0          0          0       4022   os_flag.o
       372         26          0          0          0       1614   os_task.o
       236         14          0          1        167       3170   phy.o
      1456        106        132          2          0       6508   set_pinout.o
       328        308          0          0        356        540   startup.o
       224         24          0         80          0       2574   staticbind.o
      2604        250          0         84        364      25785   target.o
       632         36          0         12          0       3515   zep.o

    ----------------------------------------------------------------------
     28568       2284       1904        292      20844     176446   Object Totals
         0          0         32          0          0          0   (incl. Generated)
         0          0          0          6          5          0   (incl. Padding)

    ----------------------------------------------------------------------

      Code (inc. data)   RO Data    RW Data    ZI Data      Debug   Library Member Name

         8          0          0          0          0         68   __main.o
       104          0          0          0          0         84   __printf.o
        14          0          0          0          0         68   __printf_wp.o
        52          8          0          0          0          0   __scatter.o
        26          0          0          0          0          0   __scatter_copy.o
        28          0          0          0          0          0   __scatter_zi.o
        28          0          0          0          0         68   _chval.o
        48          6          0          0          0         96   _printf_char_common.o
         6          0          0          0          0          0   _printf_d.o
       120         18          0          0          0         92   _printf_dec.o
       184          0          0          0          0         88   _printf_intcommon.o
         0          0          0          0          0          0   _printf_percent.o
         4          0          0          0          0          0   _printf_percent_end.o
        22          0          0          0          0        100   _rserrno.o
        64          0          0          0          0         84   _sgetc.o
        10          0          0          0          0         68   _sputc.o
       228          6        148          0          0         96   bigflt0.o
      1846        132          0          0          0        736   btod.o
        12          0          0          0          0         72   exit.o
         6          0          0          0          0        152   heapauxi.o
         0          0          0          0          0          0   indicate_semi.o
        18          0          0          0          0         76   isprint.o
        18          0          0          0          0         76   isspace.o
        44         10        272          0          0         76   lc_ctype_c.o
        44         10         28          0          0         76   lc_numeric_c.o
         2          0          0          0          0          0   libinit.o
        30          0          0          0          0          0   libinit2.o
         2          0          0          0          0          0   libshutdown.o
         2          0          0          0          0          0   libshutdown2.o
         8          4          0          0         96         68   libspace.o
        38          0          0          0          0         68   llshl.o
        40          6          0          0          0         84   noretval__2sprintf.o
        16          4          0          0          0         76   rt_ctype_table.o
         8          4          0          0          0         68   rt_errno_addr_intlibspace.o
         8          4          0          0          0         68   rt_locale_intlibspace.o
        68          0          0          0          0         68   rt_memclr.o
        78          0          0          0          0         80   rt_memclr_w.o
       138          0          0          0          0         68   rt_memcpy_v6.o
       100          0          0          0          0         80   rt_memcpy_w.o
         0          0          0          0          0          0   rtentry.o
        12          0          0          0          0          0   rtentry2.o
         6          0          0          0          0          0   rtentry4.o
         2          0          0          0          0          0   rtexit.o
        10          0          0          0          0          0   rtexit2.o
      1188         12          0          0          0        148   scanf_fp.o
       788         12          0          0          0        100   scanf_hexfp.o
       316         18          0          0          0        100   scanf_infnan.o
       128          0          0          0          0         68   strcmpv7m.o
        72          0          0          0          0         80   strcpy.o
       150          0          0          0          0         80   strncmp.o
       160         12          0          0          0        120   strtod.o
        12          4          0          0          0         68   sys_exit.o
        74          0          0          0          0         80   sys_stackheap_outer.o
         2          0          0          0          0         68   use_no_semi.o
        38          0          0          0          0        356   cpu.o
       104          0          0          0          0       5639   epi.o
       458          0          0          0          0       7473   gpio.o
       138         10          0          0          0       4800   i2c.o
       228          0          0          0          0       1994   interrupt.o
       112          0          0          0          0       2151   ssi.o
       938         92        156          0          0       5534   sysctl.o
        38          0          0          0          0       1170   systick.o
       110          0          0          0          0       3780   timer.o
       206          0          0          0          0       5398   uart.o
        98          4          0          0          0         92   d2f.o
        16          4          0          0          0         68   dcheck1.o
        24          0          0          0          0         68   dcmpi.o
       120          4          0          0          0         92   deqf.o
        94          4          0          0          0         92   dfix.o
       120          4          0          0          0         92   dleqf.o
       156          4          0          0          0         92   dnaninf.o
       108          0          0          0          0         80   drleqf.o
        24          0          0          0          0         68   fcmpi.o
        54          4          0          0          0         84   ffix.o
       104          4          0          0          0         84   fleqf.o
       140          4          0          0          0         84   fnaninf.o
         0          0          8          0          0          0   fpconst.o
        10          0          0          0          0         68   fretinf.o
        98          0          0          0          0         68   frleqf.o
       100          0          0          0          0         68   retnan.o
        92          0          0          0          0         68   scalbn.o
         4          0          0          0          0         68   scanf1.o
         8          0          0          0          0         84   scanf2.o
        48          0          0          0          0         68   trapv.o
         0          0          0          0          0          0   usenofp.o
        32          0          0          0          0      15612   context.o
         0          0       3700          0          0      15334   fontcm30.o
         0          0       5044          0          0      15334   fontcm40.o
       170          0          0          0          0       2030   line.o
       288          0          0          0          0       1991   rectangle.o
       744          0          0          0          0       3366   string.o
        42          0          0          0          0         84   atof.o
        16          6          0          0          0         68   dunder.o
        88          8          0          0          0         76   frexp.o
       148          0          0          0          0        160   ldexp.o
       152          4          0          0          0        160   narrow.o

    ----------------------------------------------------------------------
     11892        426       9356          0         96      97814   Library Totals
        32          0          0          0          0          0   (incl. Padding)

    ----------------------------------------------------------------------

      Code (inc. data)   RO Data    RW Data    ZI Data      Debug   Library Name

      6392        270        448          0         96       3816   c_w.l
      2370        102        156          0          0      38295   driverlib.lib
      1418         36          8          0          0       1488   fz_ws.l
      1234          0       8744          0          0      53667   grlib.lib
       446         18          0          0          0        548   m_ws.l

    ----------------------------------------------------------------------
     11892        426       9356          0         96      97814   Library Totals

    ----------------------------------------------------------------------

==============================================================================


      Code (inc. data)   RO Data    RW Data    ZI Data      Debug   

     40460       2710      11260        292      20940     265190   Grand Totals
     40460       2710      11260        292      20940     265190   ELF Image Totals
     40460       2710      11260        292          0          0   ROM Totals

==============================================================================

    Total RO  Size (Code + RO Data)                51720 (  50.51kB)
    Total RW  Size (RW Data + ZI Data)             21232 (  20.73kB)
    Total ROM Size (Code + RO Data + RW Data)      52012 (  50.79kB)

==============================================================================

